(dp0
S'ThePiHut'
p1
(dp2
S'source'
p3
I0
sS'ntweets'
p4
I192
sS'nwords'
p5
I2758
sS'nmappings'
p6
I85
sS'scores'
p7
(dp8
S'all'
p9
(dp10
S'per_word'
p11
F0.030819434372733864
sS'raw'
p12
F85.0
sS'per_tweet'
p13
F0.4427083333333333
ssS'1'
p14
(dp15
g11
F0.0025380710659898475
sg12
F7.0
sg13
F0.036458333333333336
ssS'0'
p16
(dp17
g11
F0.013415518491660623
sg12
F37.0
sg13
F0.19270833333333334
ssS'5'
p18
(dp19
g11
F0.006526468455402465
sg12
F18.0
sg13
F0.09375
ssS'4'
p20
(dp21
g11
F0.0014503263234227702
sg12
F4.0
sg13
F0.020833333333333332
ssS'7'
p22
(dp23
g11
F0.0007251631617113851
sg12
F2.0
sg13
F0.010416666666666666
ssS'6'
p24
(dp25
g11
F0.006163886874546773
sg12
F17.0
sg13
F0.08854166666666667
ssssS'My3DPrinting'
p26
(dp27
g3
I0
sg4
I196
sg5
I2320
sg6
I145
sg7
(dp28
g9
(dp29
g11
F0.0625
sg12
F145.0
sg13
F0.7397959183673469
ssg14
(dp30
g11
F0.003017241379310345
sg12
F7.0
sg13
F0.03571428571428571
ssg16
(dp31
g11
F0.029741379310344828
sg12
F69.0
sg13
F0.3520408163265306
ssS'3'
p32
(dp33
g11
F0.0008620689655172414
sg12
F2.0
sg13
F0.01020408163265306
ssS'2'
p34
(dp35
g11
F0.0008620689655172414
sg12
F2.0
sg13
F0.01020408163265306
ssg18
(dp36
g11
F0.011206896551724138
sg12
F26.0
sg13
F0.1326530612244898
ssg20
(dp37
g11
F0.001293103448275862
sg12
F3.0
sg13
F0.015306122448979591
ssg22
(dp38
g11
F0.003017241379310345
sg12
F7.0
sg13
F0.03571428571428571
ssg24
(dp39
g11
F0.01163793103448276
sg12
F27.0
sg13
F0.1377551020408163
ssS'8'
p40
(dp41
g11
F0.0008620689655172414
sg12
F2.0
sg13
F0.01020408163265306
ssssS'3dsystems'
p42
(dp43
S'scores'
p44
(dp45
S'all'
p46
(dp47
S'per_word'
p48
F0.13478260869565217
sS'raw'
p49
F31.0
sS'per_tweet'
p50
F3.1
ssS'0'
p51
(dp52
g48
F0.06521739130434782
sg49
F15.0
sg50
F1.5
ssS'3'
p53
(dp54
g48
F0.004347826086956522
sg49
F1.0
sg50
F0.1
ssS'2'
p55
(dp56
g48
F0.004347826086956522
sg49
F1.0
sg50
F0.1
ssS'5'
p57
(dp58
g48
F0.017391304347826087
sg49
F4.0
sg50
F0.4
ssS'7'
p59
(dp60
g48
F0.004347826086956522
sg49
F1.0
sg50
F0.1
ssS'6'
p61
(dp62
g48
F0.0391304347826087
sg49
F9.0
sg50
F0.9
sssS'source'
p63
I0
sS'ntweets'
p64
I10
sS'nmappings'
p65
I31
sS'nwords'
p66
I230
ssS'lifehacker'
p67
(dp68
g3
I0
sg4
I200
sg5
I2807
sg6
I96
sg7
(dp69
g9
(dp70
g11
F0.034200213751335945
sg12
F96.0
sg13
F0.48
ssg14
(dp71
g11
F0.0014250089063056644
sg12
F4.0
sg13
F0.02
ssg16
(dp72
g11
F0.014962593516209476
sg12
F42.0
sg13
F0.21
ssg32
(dp73
g11
F0.0007125044531528322
sg12
F2.0
sg13
F0.01
ssg34
(dp74
g11
F0.0010687566797292483
sg12
F3.0
sg13
F0.015
ssg18
(dp75
g11
F0.007481296758104738
sg12
F21.0
sg13
F0.105
ssg22
(dp76
g11
F0.0010687566797292483
sg12
F3.0
sg13
F0.015
ssg24
(dp77
g11
F0.007481296758104738
sg12
F21.0
sg13
F0.105
ssssS'3DPrintGirl'
p78
(dp79
g44
(dp80
g51
(dp81
g48
F0.02608695652173913
sg49
F3.0
sg50
F0.3
ssg46
(dp82
g48
F0.05217391304347826
sg49
F6.0
sg50
F0.6
ssg55
(dp83
g48
F0.008695652173913044
sg49
F1.0
sg50
F0.1
ssg57
(dp84
g48
F0.008695652173913044
sg49
F1.0
sg50
F0.1
ssg61
(dp85
g48
F0.008695652173913044
sg49
F1.0
sg50
F0.1
sssg63
I0
sg64
I10
sg65
I6
sg66
I115
ssS'dangerousproto'
p86
(dp87
g3
I0
sg4
I182
sg5
I1651
sg6
I138
sg7
(dp88
g9
(dp89
g11
F0.08358570563294973
sg12
F138.0
sg13
F0.7582417582417582
ssg14
(dp90
g11
F0.027256208358570563
sg12
F45.0
sg13
F0.24725274725274726
ssg16
(dp91
g11
F0.04542701393095094
sg12
F75.0
sg13
F0.41208791208791207
ssg34
(dp92
g11
F0.0006056935190793458
sg12
F1.0
sg13
F0.005494505494505495
ssg18
(dp93
g11
F0.0024227740763173833
sg12
F4.0
sg13
F0.02197802197802198
ssg20
(dp94
g11
F0.0030284675953967293
sg12
F5.0
sg13
F0.027472527472527472
ssg22
(dp95
g11
F0.0006056935190793458
sg12
F1.0
sg13
F0.005494505494505495
ssg24
(dp96
g11
F0.004239854633555421
sg12
F7.0
sg13
F0.038461538461538464
ssssS'makerfaire'
p97
(dp98
g3
I0
sg4
I188
sg5
I2983
sg6
I266
sg7
(dp99
g9
(dp100
g11
F0.08917197452229299
sg12
F266.0
sg13
F1.4148936170212767
ssg14
(dp101
g11
F0.00033523298692591353
sg12
F1.0
sg13
F0.005319148936170213
ssg16
(dp102
g11
F0.03486423064029501
sg12
F104.0
sg13
F0.5531914893617021
ssg32
(dp103
g11
F0.0013409319477036541
sg12
F4.0
sg13
F0.02127659574468085
ssg34
(dp104
g11
F0.0023466309084813944
sg12
F7.0
sg13
F0.03723404255319149
ssg18
(dp105
g11
F0.02212537713711029
sg12
F66.0
sg13
F0.35106382978723405
ssg20
(dp106
g11
F0.0010056989607777405
sg12
F3.0
sg13
F0.015957446808510637
ssg22
(dp107
g11
F0.00033523298692591353
sg12
F1.0
sg13
F0.005319148936170213
ssg24
(dp108
g11
F0.026483405967147166
sg12
F79.0
sg13
F0.42021276595744683
ssg40
(dp109
g11
F0.00033523298692591353
sg12
F1.0
sg13
F0.005319148936170213
ssssS'shapeways'
p110
(dp111
g44
(dp112
g51
(dp113
g48
F0.03205128205128205
sg49
F5.0
sg50
F0.5
ssg53
(dp114
g48
F0.00641025641025641
sg49
F1.0
sg50
F0.1
ssg57
(dp115
g48
F0.00641025641025641
sg49
F1.0
sg50
F0.1
ssg46
(dp116
g48
F0.057692307692307696
sg49
F9.0
sg50
F0.9
ssg61
(dp117
g48
F0.01282051282051282
sg49
F2.0
sg50
F0.2
sssg63
I0
sg64
I10
sg65
I9
sg66
I156
ssS'3dprintindustry'
p118
(dp119
g44
(dp120
g51
(dp121
g48
F0.012658227848101266
sg49
F2.0
sg50
F0.2222222222222222
ssg46
(dp122
g48
F0.06329113924050633
sg49
F10.0
sg50
F1.1111111111111112
ssg57
(dp123
g48
F0.012658227848101266
sg49
F2.0
sg50
F0.2222222222222222
ssg59
(dp124
g48
F0.02531645569620253
sg49
F4.0
sg50
F0.4444444444444444
ssg61
(dp125
g48
F0.012658227848101266
sg49
F2.0
sg50
F0.2222222222222222
sssg63
I0
sg64
I9
sg65
I10
sg66
I158
ssS'Raspberry_Pi'
p126
(dp127
g3
I0
sg4
I191
sg5
I4304
sg6
I221
sg7
(dp128
g9
(dp129
g11
F0.051347583643122675
sg12
F221.0
sg13
F1.1570680628272252
ssg14
(dp130
g11
F0.0060408921933085506
sg12
F26.0
sg13
F0.13612565445026178
ssg16
(dp131
g11
F0.023466542750929367
sg12
F101.0
sg13
F0.5287958115183246
ssg32
(dp132
g11
F0.0011617100371747212
sg12
F5.0
sg13
F0.02617801047120419
ssg34
(dp133
g11
F0.0032527881040892194
sg12
F14.0
sg13
F0.07329842931937172
ssg18
(dp134
g11
F0.006970260223048327
sg12
F30.0
sg13
F0.15706806282722513
ssg20
(dp135
g11
F0.0006970260223048327
sg12
F3.0
sg13
F0.015706806282722512
ssg22
(dp136
g11
F0.00046468401486988845
sg12
F2.0
sg13
F0.010471204188481676
ssg24
(dp137
g11
F0.009061338289962825
sg12
F39.0
sg13
F0.20418848167539266
ssg40
(dp138
g11
F0.00023234200743494423
sg12
F1.0
sg13
F0.005235602094240838
ssssS'3dprinting3d'
p139
(dp140
g3
I0
sg4
I199
sg5
I2892
sg6
I138
sg7
(dp141
g9
(dp142
g11
F0.04771784232365145
sg12
F138.0
sg13
F0.6934673366834171
ssg14
(dp143
g11
F0.001037344398340249
sg12
F3.0
sg13
F0.01507537688442211
ssg16
(dp144
g11
F0.020055325034578148
sg12
F58.0
sg13
F0.2914572864321608
ssg34
(dp145
g11
F0.00034578146611341634
sg12
F1.0
sg13
F0.005025125628140704
ssg18
(dp146
g11
F0.008644536652835409
sg12
F25.0
sg13
F0.12562814070351758
ssg20
(dp147
g11
F0.0017289073305670815
sg12
F5.0
sg13
F0.02512562814070352
ssg22
(dp148
g11
F0.005186721991701245
sg12
F15.0
sg13
F0.07537688442211055
ssg24
(dp149
g11
F0.01037344398340249
sg12
F30.0
sg13
F0.1507537688442211
ssg40
(dp150
g11
F0.00034578146611341634
sg12
F1.0
sg13
F0.005025125628140704
ssssS'ModMyPi'
p151
(dp152
g3
I0
sg4
I195
sg5
I3635
sg6
I111
sg7
(dp153
g9
(dp154
g11
F0.030536451169188447
sg12
F111.0
sg13
F0.5692307692307692
ssg14
(dp155
g11
F0.002200825309491059
sg12
F8.0
sg13
F0.041025641025641026
ssg16
(dp156
g11
F0.013755158184319119
sg12
F50.0
sg13
F0.2564102564102564
ssg32
(dp157
g11
F0.0002751031636863824
sg12
F1.0
sg13
F0.005128205128205128
ssg34
(dp158
g11
F0.001375515818431912
sg12
F5.0
sg13
F0.02564102564102564
ssg18
(dp159
g11
F0.0068775790921595595
sg12
F25.0
sg13
F0.1282051282051282
ssg22
(dp160
g11
F0.0005502063273727648
sg12
F2.0
sg13
F0.010256410256410256
ssg24
(dp161
g11
F0.005502063273727648
sg12
F20.0
sg13
F0.10256410256410256
ssssS'hackaday'
p162
(dp163
g3
I0
sg4
I194
sg5
I2623
sg6
I138
sg7
(dp164
g9
(dp165
g11
F0.05261151353412123
sg12
F138.0
sg13
F0.711340206185567
ssg14
(dp166
g11
F0.0041936713686618375
sg12
F11.0
sg13
F0.05670103092783505
ssg16
(dp167
g11
F0.024399542508577964
sg12
F64.0
sg13
F0.32989690721649484
ssg32
(dp168
g11
F0.0019062142584826535
sg12
F5.0
sg13
F0.02577319587628866
ssg34
(dp169
g11
F0.002668699961875715
sg12
F7.0
sg13
F0.03608247422680412
ssg18
(dp170
g11
F0.008006099885627144
sg12
F21.0
sg13
F0.10824742268041238
ssg20
(dp171
g11
F0.0007624857033930614
sg12
F2.0
sg13
F0.010309278350515464
ssg24
(dp172
g11
F0.01067479984750286
sg12
F28.0
sg13
F0.14432989690721648
ssssS'MicrochipMakes'
p173
(dp174
g3
I0
sg4
I199
sg5
I3083
sg6
I184
sg7
(dp175
g9
(dp176
g11
F0.05968212779759974
sg12
F184.0
sg13
F0.9246231155778895
ssg14
(dp177
g11
F0.005514109633473889
sg12
F17.0
sg13
F0.08542713567839195
ssg16
(dp178
g11
F0.026921829386960753
sg12
F83.0
sg13
F0.41708542713567837
ssg32
(dp179
g11
F0.0003243593902043464
sg12
F1.0
sg13
F0.005025125628140704
ssg34
(dp180
g11
F0.0003243593902043464
sg12
F1.0
sg13
F0.005025125628140704
ssg18
(dp181
g11
F0.012974375608173857
sg12
F40.0
sg13
F0.20100502512562815
ssg20
(dp182
g11
F0.0006487187804086928
sg12
F2.0
sg13
F0.010050251256281407
ssg24
(dp183
g11
F0.012974375608173857
sg12
F40.0
sg13
F0.20100502512562815
ssssS'adafruit'
p184
(dp185
g3
I0
sg4
I188
sg5
I2754
sg6
I126
sg7
(dp186
g9
(dp187
g11
F0.0457516339869281
sg12
F126.0
sg13
F0.6702127659574468
ssg14
(dp188
g11
F0.0018155410312273058
sg12
F5.0
sg13
F0.026595744680851064
ssg16
(dp189
g11
F0.02178649237472767
sg12
F60.0
sg13
F0.3191489361702128
ssg32
(dp190
g11
F0.0010893246187363835
sg12
F3.0
sg13
F0.015957446808510637
ssg34
(dp191
g11
F0.0014524328249818446
sg12
F4.0
sg13
F0.02127659574468085
ssg18
(dp192
g11
F0.007988380537400145
sg12
F22.0
sg13
F0.11702127659574468
ssg20
(dp193
g11
F0.0010893246187363835
sg12
F3.0
sg13
F0.015957446808510637
ssg22
(dp194
g11
F0.00036310820624546115
sg12
F1.0
sg13
F0.005319148936170213
ssg24
(dp195
g11
F0.010167029774872912
sg12
F28.0
sg13
F0.14893617021276595
ssssS'3dersorg'
p196
(dp197
g44
(dp198
g51
(dp199
g48
F0.032432432432432434
sg49
F6.0
sg50
F0.6
ssg46
(dp200
g48
F0.07567567567567568
sg49
F14.0
sg50
F1.4
ssg57
(dp201
g48
F0.02702702702702703
sg49
F5.0
sg50
F0.5
ssg61
(dp202
g48
F0.016216216216216217
sg49
F3.0
sg50
F0.3
sssg63
I0
sg64
I10
sg65
I14
sg66
I185
ssS'3dprintingcom'
p203
(dp204
g3
I0
sg4
I195
sg5
I2689
sg6
I106
sg7
(dp205
g9
(dp206
g11
F0.039419858683525474
sg12
F106.0
sg13
F0.5435897435897435
ssg14
(dp207
g11
F0.0007437709185570844
sg12
F2.0
sg13
F0.010256410256410256
ssg16
(dp208
g11
F0.01859427296392711
sg12
F50.0
sg13
F0.2564102564102564
ssg18
(dp209
g11
F0.004462625511342506
sg12
F12.0
sg13
F0.06153846153846154
ssg22
(dp210
g11
F0.004090740052063964
sg12
F11.0
sg13
F0.05641025641025641
ssg24
(dp211
g11
F0.011528449237634809
sg12
F31.0
sg13
F0.15897435897435896
ssssS'htpc_guides'
p212
(dp213
g3
I0
sg4
I159
sg5
I1684
sg6
I69
sg7
(dp214
g14
(dp215
g11
F0.004750593824228029
sg12
F8.0
sg13
F0.050314465408805034
ssg16
(dp216
g11
F0.019596199524940617
sg12
F33.0
sg13
F0.20754716981132076
ssg9
(dp217
g11
F0.040973871733966744
sg12
F69.0
sg13
F0.4339622641509434
ssg18
(dp218
g11
F0.012470308788598575
sg12
F21.0
sg13
F0.1320754716981132
ssg24
(dp219
g11
F0.004156769596199525
sg12
F7.0
sg13
F0.0440251572327044
ssssS'ColorFabb'
p220
(dp221
g44
(dp222
S'1'
p223
(dp224
g48
F0.006060606060606061
sg49
F1.0
sg50
F0.1111111111111111
ssg51
(dp225
g48
F0.012121212121212121
sg49
F2.0
sg50
F0.2222222222222222
ssg46
(dp226
g48
F0.030303030303030304
sg49
F5.0
sg50
F0.5555555555555556
ssg57
(dp227
g48
F0.006060606060606061
sg49
F1.0
sg50
F0.1111111111111111
ssg61
(dp228
g48
F0.006060606060606061
sg49
F1.0
sg50
F0.1111111111111111
sssg63
I0
sg64
I9
sg65
I5
sg66
I165
ssS'xKaliSec'
p229
(dp230
g3
I0
sg4
I182
sg5
I2169
sg6
I165
sg7
(dp231
g9
(dp232
g11
F0.07607192254495158
sg12
F165.0
sg13
F0.9065934065934066
ssg14
(dp233
g11
F0.004149377593360996
sg12
F9.0
sg13
F0.04945054945054945
ssg16
(dp234
g11
F0.033656062701705854
sg12
F73.0
sg13
F0.4010989010989011
ssg18
(dp235
g11
F0.01705855232826187
sg12
F37.0
sg13
F0.2032967032967033
ssg22
(dp236
g11
F0.0004610419548178884
sg12
F1.0
sg13
F0.005494505494505495
ssg24
(dp237
g11
F0.02028584601198709
sg12
F44.0
sg13
F0.24175824175824176
ssg40
(dp238
g11
F0.0004610419548178884
sg12
F1.0
sg13
F0.005494505494505495
ssssS'make'
p239
(dp240
g3
I0
sg4
I197
sg5
I3474
sg6
I369
sg7
(dp241
g9
(dp242
g11
F0.10621761658031088
sg12
F369.0
sg13
F1.8730964467005076
ssg14
(dp243
g11
F0.0005757052389176742
sg12
F2.0
sg13
F0.01015228426395939
ssg16
(dp244
g11
F0.04317789291882556
sg12
F150.0
sg13
F0.7614213197969543
ssg32
(dp245
g11
F0.0017271157167530224
sg12
F6.0
sg13
F0.030456852791878174
ssg34
(dp246
g11
F0.0031663788140472078
sg12
F11.0
sg13
F0.05583756345177665
ssg18
(dp247
g11
F0.02475532527345999
sg12
F86.0
sg13
F0.4365482233502538
ssg20
(dp248
g11
F0.0017271157167530224
sg12
F6.0
sg13
F0.030456852791878174
ssg22
(dp249
g11
F0.0011514104778353484
sg12
F4.0
sg13
F0.02030456852791878
ssg24
(dp250
g11
F0.029936672423719057
sg12
F104.0
sg13
F0.5279187817258884
ssssS'Pi_Borg'
p251
(dp252
g3
I0
sg4
I194
sg5
I2929
sg6
I46
sg7
(dp253
g9
(dp254
g11
F0.015705018777739842
sg12
F46.0
sg13
F0.23711340206185566
ssg14
(dp255
g11
F0.0010242403550699897
sg12
F3.0
sg13
F0.015463917525773196
ssg16
(dp256
g11
F0.007852509388869921
sg12
F23.0
sg13
F0.11855670103092783
ssg34
(dp257
g11
F0.0006828269033799932
sg12
F2.0
sg13
F0.010309278350515464
ssg18
(dp258
g11
F0.0027313076135199728
sg12
F8.0
sg13
F0.041237113402061855
ssg24
(dp259
g11
F0.0030727210652099694
sg12
F9.0
sg13
F0.04639175257731959
ssg40
(dp260
g11
F0.0003414134516899966
sg12
F1.0
sg13
F0.005154639175257732
ssssS'instructables'
p261
(dp262
g3
I0
sg4
I180
sg5
I1606
sg6
I126
sg7
(dp263
g9
(dp264
g11
F0.0784557907845579
sg12
F126.0
sg13
F0.7
ssg14
(dp265
g11
F0.0006226650062266501
sg12
F1.0
sg13
F0.005555555555555556
ssg16
(dp266
g11
F0.03798256537982565
sg12
F61.0
sg13
F0.3388888888888889
ssg34
(dp267
g11
F0.0006226650062266501
sg12
F1.0
sg13
F0.005555555555555556
ssg18
(dp268
g11
F0.0186799501867995
sg12
F30.0
sg13
F0.16666666666666666
ssg20
(dp269
g11
F0.0006226650062266501
sg12
F1.0
sg13
F0.005555555555555556
ssg22
(dp270
g11
F0.0012453300124533001
sg12
F2.0
sg13
F0.011111111111111112
ssg24
(dp271
g11
F0.0186799501867995
sg12
F30.0
sg13
F0.16666666666666666
ssssS'linuxfoundation'
p272
(dp273
g3
I0
sg4
I197
sg5
I3688
sg6
I360
sg7
(dp274
g9
(dp275
g11
F0.09761388286334056
sg12
F360.0
sg13
F1.8274111675126903
ssg14
(dp276
g11
F0.025759219088937094
sg12
F95.0
sg13
F0.48223350253807107
ssg16
(dp277
g11
F0.04934924078091106
sg12
F182.0
sg13
F0.9238578680203046
ssg32
(dp278
g11
F0.003796095444685466
sg12
F14.0
sg13
F0.07106598984771574
ssg34
(dp279
g11
F0.0067787418655097615
sg12
F25.0
sg13
F0.12690355329949238
ssg18
(dp280
g11
F0.0027114967462039045
sg12
F10.0
sg13
F0.050761421319796954
ssg20
(dp281
g11
F0.0005422993492407809
sg12
F2.0
sg13
F0.01015228426395939
ssg22
(dp282
g11
F0.0010845986984815619
sg12
F4.0
sg13
F0.02030456852791878
ssg24
(dp283
g11
F0.0070498915401301515
sg12
F26.0
sg13
F0.1319796954314721
ssg40
(dp284
g11
F0.0005422993492407809
sg12
F2.0
sg13
F0.01015228426395939
ssssS'freetronics'
p285
(dp286
g3
I0
sg4
I187
sg5
I2664
sg6
I185
sg7
(dp287
g9
(dp288
g11
F0.06944444444444445
sg12
F185.0
sg13
F0.9893048128342246
ssg14
(dp289
g11
F0.027402402402402402
sg12
F73.0
sg13
F0.39037433155080214
ssg16
(dp290
g11
F0.03678678678678678
sg12
F98.0
sg13
F0.5240641711229946
ssg18
(dp291
g11
F0.0015015015015015015
sg12
F4.0
sg13
F0.0213903743315508
ssg20
(dp292
g11
F0.0011261261261261261
sg12
F3.0
sg13
F0.016042780748663103
ssg22
(dp293
g11
F0.0007507507507507507
sg12
F2.0
sg13
F0.0106951871657754
ssg24
(dp294
g11
F0.0018768768768768769
sg12
F5.0
sg13
F0.026737967914438502
ssssS'3DPrintingIt'
p295
(dp296
g3
I0
sg4
I196
sg5
I2320
sg6
I145
sg7
(dp297
g9
(dp298
g11
F0.0625
sg12
F145.0
sg13
F0.7397959183673469
ssg14
(dp299
g11
F0.003017241379310345
sg12
F7.0
sg13
F0.03571428571428571
ssg16
(dp300
g11
F0.029741379310344828
sg12
F69.0
sg13
F0.3520408163265306
ssg32
(dp301
g11
F0.0008620689655172414
sg12
F2.0
sg13
F0.01020408163265306
ssg34
(dp302
g11
F0.0008620689655172414
sg12
F2.0
sg13
F0.01020408163265306
ssg18
(dp303
g11
F0.011206896551724138
sg12
F26.0
sg13
F0.1326530612244898
ssg20
(dp304
g11
F0.001293103448275862
sg12
F3.0
sg13
F0.015306122448979591
ssg22
(dp305
g11
F0.003017241379310345
sg12
F7.0
sg13
F0.03571428571428571
ssg24
(dp306
g11
F0.01163793103448276
sg12
F27.0
sg13
F0.1377551020408163
ssg40
(dp307
g11
F0.0008620689655172414
sg12
F2.0
sg13
F0.01020408163265306
ssssS'androidcentral'
p308
(dp309
g3
I0
sg4
I197
sg5
I3029
sg6
I66
sg7
(dp310
g9
(dp311
g11
F0.021789369428854406
sg12
F66.0
sg13
F0.3350253807106599
ssg14
(dp312
g11
F0.0036315615714757345
sg12
F11.0
sg13
F0.05583756345177665
ssg16
(dp313
g11
F0.00957411687025421
sg12
F29.0
sg13
F0.14720812182741116
ssg18
(dp314
g11
F0.0036315615714757345
sg12
F11.0
sg13
F0.05583756345177665
ssg24
(dp315
g11
F0.00462198745460548
sg12
F14.0
sg13
F0.07106598984771574
ssg40
(dp316
g11
F0.0003301419610432486
sg12
F1.0
sg13
F0.005076142131979695
ssssS'Ultimaker'
p317
(dp318
g3
I0
sg4
I191
sg5
I3815
sg6
I288
sg7
(dp319
g9
(dp320
g11
F0.07549148099606816
sg12
F288.0
sg13
F1.5078534031413613
ssg14
(dp321
g11
F0.001310615989515072
sg12
F5.0
sg13
F0.02617801047120419
ssg16
(dp322
g11
F0.03853211009174312
sg12
F147.0
sg13
F0.7696335078534031
ssg32
(dp323
g11
F0.0007863695937090433
sg12
F3.0
sg13
F0.015706806282722512
ssg34
(dp324
g11
F0.003669724770642202
sg12
F14.0
sg13
F0.07329842931937172
ssg18
(dp325
g11
F0.010484927916120577
sg12
F40.0
sg13
F0.2094240837696335
ssg20
(dp326
g11
F0.0007863695937090433
sg12
F3.0
sg13
F0.015706806282722512
ssg22
(dp327
g11
F0.0005242463958060288
sg12
F2.0
sg13
F0.010471204188481676
ssg24
(dp328
g11
F0.019397116644823065
sg12
F74.0
sg13
F0.387434554973822
ssssS'3dprinting'
p329
(dp330
g3
I0
sg4
I174
sg5
I2966
sg6
I140
sg7
(dp331
g9
(dp332
g11
F0.04720161834120027
sg12
F140.0
sg13
F0.8045977011494253
ssg14
(dp333
g11
F0.004720161834120027
sg12
F14.0
sg13
F0.08045977011494253
ssg16
(dp334
g11
F0.024275118004045852
sg12
F72.0
sg13
F0.41379310344827586
ssg32
(dp335
g11
F0.00033715441672285906
sg12
F1.0
sg13
F0.005747126436781609
ssg34
(dp336
g11
F0.00033715441672285906
sg12
F1.0
sg13
F0.005747126436781609
ssg18
(dp337
g11
F0.008091706001348618
sg12
F24.0
sg13
F0.13793103448275862
ssg20
(dp338
g11
F0.0006743088334457181
sg12
F2.0
sg13
F0.011494252873563218
ssg22
(dp339
g11
F0.00033715441672285906
sg12
F1.0
sg13
F0.005747126436781609
ssg24
(dp340
g11
F0.008428860418071477
sg12
F25.0
sg13
F0.14367816091954022
ssssS'3DPrintBoard'
p341
(dp342
g44
(dp343
g51
(dp344
g48
F0.023076923076923078
sg49
F3.0
sg50
F0.3
ssg46
(dp345
g48
F0.046153846153846156
sg49
F6.0
sg50
F0.6
ssg55
(dp346
g48
F0.007692307692307693
sg49
F1.0
sg50
F0.1
ssg57
(dp347
g48
F0.007692307692307693
sg49
F1.0
sg50
F0.1
ssg61
(dp348
g48
F0.007692307692307693
sg49
F1.0
sg50
F0.1
sssg63
I0
sg64
I10
sg65
I6
sg66
I130
ssS'planetarduino'
p349
(dp350
g3
I0
sg4
I187
sg5
I1910
sg6
I125
sg7
(dp351
g9
(dp352
g11
F0.06544502617801047
sg12
F125.0
sg13
F0.6684491978609626
ssg14
(dp353
g11
F0.0020942408376963353
sg12
F4.0
sg13
F0.0213903743315508
ssg16
(dp354
g11
F0.028272251308900525
sg12
F54.0
sg13
F0.2887700534759358
ssg18
(dp355
g11
F0.013089005235602094
sg12
F25.0
sg13
F0.13368983957219252
ssg20
(dp356
g11
F0.0020942408376963353
sg12
F4.0
sg13
F0.0213903743315508
ssg22
(dp357
g11
F0.0015706806282722514
sg12
F3.0
sg13
F0.016042780748663103
ssg24
(dp358
g11
F0.01832460732984293
sg12
F35.0
sg13
F0.18716577540106952
ssssS'pimoroni'
p359
(dp360
g3
I0
sg4
I191
sg5
I3141
sg6
I63
sg7
(dp361
g9
(dp362
g11
F0.02005730659025788
sg12
F63.0
sg13
F0.3298429319371728
ssg14
(dp363
g11
F0.0006367398917542184
sg12
F2.0
sg13
F0.010471204188481676
ssg16
(dp364
g11
F0.009232728430436167
sg12
F29.0
sg13
F0.1518324607329843
ssg34
(dp365
g11
F0.0003183699458771092
sg12
F1.0
sg13
F0.005235602094240838
ssg18
(dp366
g11
F0.0038204393505253103
sg12
F12.0
sg13
F0.06282722513089005
ssg22
(dp367
g11
F0.0003183699458771092
sg12
F1.0
sg13
F0.005235602094240838
ssg24
(dp368
g11
F0.0057306590257879654
sg12
F18.0
sg13
F0.09424083769633508
ssssS'RSComponents'
p369
(dp370
g3
I0
sg4
I199
sg5
I3972
sg6
I280
sg7
(dp371
g9
(dp372
g11
F0.07049345417925479
sg12
F280.0
sg13
F1.407035175879397
ssg14
(dp373
g11
F0.004783484390735146
sg12
F19.0
sg13
F0.09547738693467336
ssg16
(dp374
g11
F0.03449144008056395
sg12
F137.0
sg13
F0.6884422110552764
ssg32
(dp375
g11
F0.00025176233635448137
sg12
F1.0
sg13
F0.005025125628140704
ssg34
(dp376
g11
F0.0012588116817724068
sg12
F5.0
sg13
F0.02512562814070352
ssg18
(dp377
g11
F0.008559919436052367
sg12
F34.0
sg13
F0.1708542713567839
ssg20
(dp378
g11
F0.002014098690835851
sg12
F8.0
sg13
F0.04020100502512563
ssg22
(dp379
g11
F0.0015105740181268882
sg12
F6.0
sg13
F0.03015075376884422
ssg24
(dp380
g11
F0.017371601208459216
sg12
F69.0
sg13
F0.34673366834170855
ssg40
(dp381
g11
F0.00025176233635448137
sg12
F1.0
sg13
F0.005025125628140704
ssssS'TheMagP1'
p382
(dp383
g3
I0
sg4
I194
sg5
I3036
sg6
I87
sg7
(dp384
g9
(dp385
g11
F0.02865612648221344
sg12
F87.0
sg13
F0.4484536082474227
ssg14
(dp386
g11
F0.003952569169960474
sg12
F12.0
sg13
F0.061855670103092786
ssg16
(dp387
g11
F0.013175230566534914
sg12
F40.0
sg13
F0.20618556701030927
ssg32
(dp388
g11
F0.00032938076416337287
sg12
F1.0
sg13
F0.005154639175257732
ssg34
(dp389
g11
F0.0013175230566534915
sg12
F4.0
sg13
F0.020618556701030927
ssg18
(dp390
g11
F0.0036231884057971015
sg12
F11.0
sg13
F0.05670103092783505
ssg20
(dp391
g11
F0.00032938076416337287
sg12
F1.0
sg13
F0.005154639175257732
ssg22
(dp392
g11
F0.00032938076416337287
sg12
F1.0
sg13
F0.005154639175257732
ssg24
(dp393
g11
F0.005599472990777339
sg12
F17.0
sg13
F0.08762886597938144
ssssS'mbanzi'
p394
(dp395
g3
I0
sg4
I167
sg5
I2576
sg6
I134
sg7
(dp396
g9
(dp397
g11
F0.05201863354037267
sg12
F134.0
sg13
F0.8023952095808383
ssg14
(dp398
g11
F0.006599378881987578
sg12
F17.0
sg13
F0.10179640718562874
ssg16
(dp399
g11
F0.023291925465838508
sg12
F60.0
sg13
F0.3592814371257485
ssg32
(dp400
g11
F0.003105590062111801
sg12
F8.0
sg13
F0.04790419161676647
ssg34
(dp401
g11
F0.002717391304347826
sg12
F7.0
sg13
F0.041916167664670656
ssg18
(dp402
g11
F0.005046583850931677
sg12
F13.0
sg13
F0.07784431137724551
ssg22
(dp403
g11
F0.0019409937888198758
sg12
F5.0
sg13
F0.029940119760479042
ssg24
(dp404
g11
F0.008152173913043478
sg12
F21.0
sg13
F0.12574850299401197
ssg40
(dp405
g11
F0.0011645962732919255
sg12
F3.0
sg13
F0.017964071856287425
ssssS'fabbaloo'
p406
(dp407
g44
(dp408
g223
(dp409
g48
F0.008
sg49
F1.0
sg50
F0.1111111111111111
ssg51
(dp410
g48
F0.032
sg49
F4.0
sg50
F0.4444444444444444
ssg53
(dp411
g48
F0.008
sg49
F1.0
sg50
F0.1111111111111111
ssg46
(dp412
g48
F0.048
sg49
F6.0
sg50
F0.6666666666666666
sssg63
I0
sg64
I9
sg65
I6
sg66
I125
ssS'imaterialise'
p413
(dp414
g3
I0
sg4
I191
sg5
I3233
sg6
I180
sg7
(dp415
g9
(dp416
g11
F0.05567584287039901
sg12
F180.0
sg13
F0.9424083769633508
ssg14
(dp417
g11
F0.0024744819053510673
sg12
F8.0
sg13
F0.041884816753926704
ssg16
(dp418
g11
F0.030312403340550572
sg12
F98.0
sg13
F0.5130890052356021
ssg34
(dp419
g11
F0.0006186204763377668
sg12
F2.0
sg13
F0.010471204188481676
ssg18
(dp420
g11
F0.008351376430559852
sg12
F27.0
sg13
F0.14136125654450263
ssg24
(dp421
g11
F0.013300340241261985
sg12
F43.0
sg13
F0.225130890052356
ssg40
(dp422
g11
F0.0006186204763377668
sg12
F2.0
sg13
F0.010471204188481676
ssssS'StackSocial'
p423
(dp424
g3
I0
sg4
I200
sg5
I3020
sg6
I205
sg7
(dp425
g9
(dp426
g11
F0.06788079470198675
sg12
F205.0
sg13
F1.025
ssg14
(dp427
g11
F0.0076158940397350995
sg12
F23.0
sg13
F0.115
ssg16
(dp428
g11
F0.03145695364238411
sg12
F95.0
sg13
F0.475
ssg32
(dp429
g11
F0.004635761589403974
sg12
F14.0
sg13
F0.07
ssg34
(dp430
g11
F0.005629139072847682
sg12
F17.0
sg13
F0.085
ssg18
(dp431
g11
F0.005960264900662252
sg12
F18.0
sg13
F0.09
ssg20
(dp432
g11
F0.001986754966887417
sg12
F6.0
sg13
F0.03
ssg22
(dp433
g11
F0.0013245033112582781
sg12
F4.0
sg13
F0.02
ssg24
(dp434
g11
F0.008278145695364239
sg12
F25.0
sg13
F0.125
ssg40
(dp435
g11
F0.0009933774834437086
sg12
F3.0
sg13
F0.015
ssssS'RealSexyCyborg'
p436
(dp437
g3
I0
sg4
I180
sg5
I3804
sg6
I123
sg7
(dp438
g9
(dp439
g11
F0.032334384858044164
sg12
F123.0
sg13
F0.6833333333333333
ssg14
(dp440
g11
F0.002103049421661409
sg12
F8.0
sg13
F0.044444444444444446
ssg16
(dp441
g11
F0.015247108307045216
sg12
F58.0
sg13
F0.32222222222222224
ssg32
(dp442
g11
F0.0010515247108307045
sg12
F4.0
sg13
F0.022222222222222223
ssg34
(dp443
g11
F0.0013144058885383807
sg12
F5.0
sg13
F0.027777777777777776
ssg18
(dp444
g11
F0.0057833859095688745
sg12
F22.0
sg13
F0.12222222222222222
ssg20
(dp445
g11
F0.0005257623554153522
sg12
F2.0
sg13
F0.011111111111111112
ssg24
(dp446
g11
F0.006309148264984227
sg12
F24.0
sg13
F0.13333333333333333
ssssS'RPiSpy'
p447
(dp448
g3
I0
sg4
I195
sg5
I3556
sg6
I130
sg7
(dp449
g9
(dp450
g11
F0.03655793025871766
sg12
F130.0
sg13
F0.6666666666666666
ssg14
(dp451
g11
F0.003374578177727784
sg12
F12.0
sg13
F0.06153846153846154
ssg16
(dp452
g11
F0.016310461192350956
sg12
F58.0
sg13
F0.29743589743589743
ssg34
(dp453
g11
F0.00028121484814398203
sg12
F1.0
sg13
F0.005128205128205128
ssg18
(dp454
g11
F0.006186726659167604
sg12
F22.0
sg13
F0.11282051282051282
ssg20
(dp455
g11
F0.003093363329583802
sg12
F11.0
sg13
F0.05641025641025641
ssg22
(dp456
g11
F0.000843644544431946
sg12
F3.0
sg13
F0.015384615384615385
ssg24
(dp457
g11
F0.006186726659167604
sg12
F22.0
sg13
F0.11282051282051282
ssg40
(dp458
g11
F0.00028121484814398203
sg12
F1.0
sg13
F0.005128205128205128
ssssS'arduinoblog'
p459
(dp460
g3
I0
sg4
I199
sg5
I3906
sg6
I505
sg7
(dp461
g9
(dp462
g11
F0.12928827444956478
sg12
F505.0
sg13
F2.5376884422110555
ssg14
(dp463
g11
F0.010752688172043012
sg12
F42.0
sg13
F0.21105527638190955
ssg16
(dp464
g11
F0.05504352278545827
sg12
F215.0
sg13
F1.0804020100502512
ssg32
(dp465
g11
F0.002560163850486431
sg12
F10.0
sg13
F0.05025125628140704
ssg34
(dp466
g11
F0.005120327700972862
sg12
F20.0
sg13
F0.10050251256281408
ssg18
(dp467
g11
F0.023297491039426525
sg12
F91.0
sg13
F0.457286432160804
ssg22
(dp468
g11
F0.006144393241167435
sg12
F24.0
sg13
F0.12060301507537688
ssg24
(dp469
g11
F0.02636968766001024
sg12
F103.0
sg13
F0.5175879396984925
ssssS'seeedstudio'
p470
(dp471
g3
I0
sg4
I179
sg5
I3039
sg6
I143
sg7
(dp472
g9
(dp473
g11
F0.04705495228693649
sg12
F143.0
sg13
F0.7988826815642458
ssg14
(dp474
g11
F0.0029615004935834156
sg12
F9.0
sg13
F0.05027932960893855
ssg16
(dp475
g11
F0.022704837117472853
sg12
F69.0
sg13
F0.3854748603351955
ssg32
(dp476
g11
F0.0003290556103981573
sg12
F1.0
sg13
F0.00558659217877095
ssg34
(dp477
g11
F0.0009871668311944718
sg12
F3.0
sg13
F0.01675977653631285
ssg18
(dp478
g11
F0.008555445870352089
sg12
F26.0
sg13
F0.1452513966480447
ssg20
(dp479
g11
F0.0009871668311944718
sg12
F3.0
sg13
F0.01675977653631285
ssg22
(dp480
g11
F0.0003290556103981573
sg12
F1.0
sg13
F0.00558659217877095
ssg24
(dp481
g11
F0.009542612701546561
sg12
F29.0
sg13
F0.16201117318435754
ssg40
(dp482
g11
F0.0006581112207963146
sg12
F2.0
sg13
F0.0111731843575419
ssssS'3DHubs'
p483
(dp484
g44
(dp485
g51
(dp486
g48
F0.03225806451612903
sg49
F6.0
sg50
F0.6666666666666666
ssg46
(dp487
g48
F0.06989247311827956
sg49
F13.0
sg50
F1.4444444444444444
ssg57
(dp488
g48
F0.010752688172043012
sg49
F2.0
sg50
F0.2222222222222222
ssS'4'
p489
(dp490
g48
F0.005376344086021506
sg49
F1.0
sg50
F0.1111111111111111
ssg61
(dp491
g48
F0.021505376344086023
sg49
F4.0
sg50
F0.4444444444444444
sssg63
I0
sg64
I9
sg65
I13
sg66
I186
ssS'3DPrintingFans'
p492
(dp493
g3
I0
sg4
I196
sg5
I2320
sg6
I145
sg7
(dp494
g9
(dp495
g11
F0.0625
sg12
F145.0
sg13
F0.7397959183673469
ssg14
(dp496
g11
F0.003017241379310345
sg12
F7.0
sg13
F0.03571428571428571
ssg16
(dp497
g11
F0.029741379310344828
sg12
F69.0
sg13
F0.3520408163265306
ssg32
(dp498
g11
F0.0008620689655172414
sg12
F2.0
sg13
F0.01020408163265306
ssg34
(dp499
g11
F0.0008620689655172414
sg12
F2.0
sg13
F0.01020408163265306
ssg18
(dp500
g11
F0.011206896551724138
sg12
F26.0
sg13
F0.1326530612244898
ssg20
(dp501
g11
F0.001293103448275862
sg12
F3.0
sg13
F0.015306122448979591
ssg22
(dp502
g11
F0.003017241379310345
sg12
F7.0
sg13
F0.03571428571428571
ssg24
(dp503
g11
F0.01163793103448276
sg12
F27.0
sg13
F0.1377551020408163
ssg40
(dp504
g11
F0.0008620689655172414
sg12
F2.0
sg13
F0.01020408163265306
ssssS'element14'
p505
(dp506
g3
I0
sg4
I200
sg5
I3536
sg6
I208
sg7
(dp507
g9
(dp508
g11
F0.058823529411764705
sg12
F208.0
sg13
F1.04
ssg14
(dp509
g11
F0.003110859728506787
sg12
F11.0
sg13
F0.055
ssg16
(dp510
g11
F0.029694570135746605
sg12
F105.0
sg13
F0.525
ssg32
(dp511
g11
F0.003110859728506787
sg12
F11.0
sg13
F0.055
ssg34
(dp512
g11
F0.004524886877828055
sg12
F16.0
sg13
F0.08
ssg18
(dp513
g11
F0.005656108597285068
sg12
F20.0
sg13
F0.1
ssg20
(dp514
g11
F0.0025452488687782806
sg12
F9.0
sg13
F0.045
ssg22
(dp515
g11
F0.0005656108597285068
sg12
F2.0
sg13
F0.01
ssg24
(dp516
g11
F0.009615384615384616
sg12
F34.0
sg13
F0.17
ssssS'sparkfun'
p517
(dp518
g3
I0
sg4
I194
sg5
I3657
sg6
I154
sg7
(dp519
g9
(dp520
g11
F0.042111019961717254
sg12
F154.0
sg13
F0.7938144329896907
ssg14
(dp521
g11
F0.0013672409078479629
sg12
F5.0
sg13
F0.02577319587628866
ssg16
(dp522
g11
F0.019414820891441073
sg12
F71.0
sg13
F0.36597938144329895
ssg32
(dp523
g11
F0.0008203445447087777
sg12
F3.0
sg13
F0.015463917525773196
ssg34
(dp524
g11
F0.0027344818156959257
sg12
F10.0
sg13
F0.05154639175257732
ssg18
(dp525
g11
F0.007109652720809406
sg12
F26.0
sg13
F0.13402061855670103
ssg20
(dp526
g11
F0.0008203445447087777
sg12
F3.0
sg13
F0.015463917525773196
ssg22
(dp527
g11
F0.0008203445447087777
sg12
F3.0
sg13
F0.015463917525773196
ssg24
(dp528
g11
F0.008750341810226962
sg12
F32.0
sg13
F0.16494845360824742
ssg40
(dp529
g11
F0.00027344818156959256
sg12
F1.0
sg13
F0.005154639175257732
ssssS'arduino'
p530
(dp531
g3
I0
sg4
I179
sg5
I2607
sg6
I201
sg7
(dp532
g9
(dp533
g11
F0.07710011507479862
sg12
F201.0
sg13
F1.1229050279329609
ssg14
(dp534
g11
F0.004986574606827772
sg12
F13.0
sg13
F0.07262569832402235
ssg16
(dp535
g11
F0.03375527426160337
sg12
F88.0
sg13
F0.49162011173184356
ssg32
(dp536
g11
F0.0003835826620636747
sg12
F1.0
sg13
F0.00558659217877095
ssg34
(dp537
g11
F0.0003835826620636747
sg12
F1.0
sg13
F0.00558659217877095
ssg18
(dp538
g11
F0.017644802454929037
sg12
F46.0
sg13
F0.2569832402234637
ssg20
(dp539
g11
F0.0011507479861910242
sg12
F3.0
sg13
F0.01675977653631285
ssg22
(dp540
g11
F0.0003835826620636747
sg12
F1.0
sg13
F0.00558659217877095
ssg24
(dp541
g11
F0.018411967779056387
sg12
F48.0
sg13
F0.2681564245810056
ssssS'3d_printers'
p542
(dp543
g3
I0
sg4
I197
sg5
I3399
sg6
I168
sg7
(dp544
g9
(dp545
g11
F0.04942630185348632
sg12
F168.0
sg13
F0.8527918781725888
ssg14
(dp546
g11
F0.0014710208884966167
sg12
F5.0
sg13
F0.025380710659898477
ssg16
(dp547
g11
F0.025007355104442484
sg12
F85.0
sg13
F0.43147208121827413
ssg32
(dp548
g11
F0.0005884083553986466
sg12
F2.0
sg13
F0.01015228426395939
ssg34
(dp549
g11
F0.0029420417769932335
sg12
F10.0
sg13
F0.050761421319796954
ssg18
(dp550
g11
F0.005884083553986467
sg12
F20.0
sg13
F0.10152284263959391
ssg20
(dp551
g11
F0.0002942041776993233
sg12
F1.0
sg13
F0.005076142131979695
ssg22
(dp552
g11
F0.0023536334215945864
sg12
F8.0
sg13
F0.04060913705583756
ssg24
(dp553
g11
F0.01059135039717564
sg12
F36.0
sg13
F0.18274111675126903
ssg40
(dp554
g11
F0.0002942041776993233
sg12
F1.0
sg13
F0.005076142131979695
ssssS'makerbot'
p555
(dp556
g44
(dp557
g46
(dp558
g48
F0.1592920353982301
sg49
F36.0
sg50
F3.6
ssg223
(dp559
g48
F0.004424778761061947
sg49
F1.0
sg50
F0.1
ssg51
(dp560
g48
F0.0752212389380531
sg49
F17.0
sg50
F1.7
ssg55
(dp561
g48
F0.004424778761061947
sg49
F1.0
sg50
F0.1
ssg57
(dp562
g48
F0.035398230088495575
sg49
F8.0
sg50
F0.8
ssg489
(dp563
g48
F0.004424778761061947
sg49
F1.0
sg50
F0.1
ssg61
(dp564
g48
F0.035398230088495575
sg49
F8.0
sg50
F0.8
sssg63
I0
sg64
I10
sg65
I36
sg66
I226
ssS'CodeClub'
p565
(dp566
g3
I0
sg4
I197
sg5
I3683
sg6
I158
sg7
(dp567
g9
(dp568
g11
F0.04289980993755091
sg12
F158.0
sg13
F0.8020304568527918
ssg14
(dp569
g11
F0.005701873472712463
sg12
F21.0
sg13
F0.1065989847715736
ssg16
(dp570
g11
F0.021992940537605213
sg12
F81.0
sg13
F0.41116751269035534
ssg32
(dp571
g11
F0.0008145533532446375
sg12
F3.0
sg13
F0.015228426395939087
ssg34
(dp572
g11
F0.002986695628563671
sg12
F11.0
sg13
F0.05583756345177665
ssg18
(dp573
g11
F0.0038012489818083084
sg12
F14.0
sg13
F0.07106598984771574
ssg20
(dp574
g11
F0.0005430355688297583
sg12
F2.0
sg13
F0.01015228426395939
ssg22
(dp575
g11
F0.00027151778441487917
sg12
F1.0
sg13
F0.005076142131979695
ssg24
(dp576
g11
F0.006244909041542221
sg12
F23.0
sg13
F0.116751269035533
ssg40
(dp577
g11
F0.0005430355688297583
sg12
F2.0
sg13
F0.01015228426395939
ssssS'MakerShed'
p578
(dp579
g3
I0
sg4
I198
sg5
I2858
sg6
I176
sg7
(dp580
g9
(dp581
g11
F0.0615815255423373
sg12
F176.0
sg13
F0.8888888888888888
ssg14
(dp582
g11
F0.00244926522043387
sg12
F7.0
sg13
F0.03535353535353535
ssg16
(dp583
g11
F0.02589223233030091
sg12
F74.0
sg13
F0.37373737373737376
ssg32
(dp584
g11
F0.0010496850944716584
sg12
F3.0
sg13
F0.015151515151515152
ssg34
(dp585
g11
F0.0031490552834149755
sg12
F9.0
sg13
F0.045454545454545456
ssg18
(dp586
g11
F0.013995801259622114
sg12
F40.0
sg13
F0.20202020202020202
ssg24
(dp587
g11
F0.015045486354093772
sg12
F43.0
sg13
F0.21717171717171718
ssss.