(dp0
cre
_compile
p1
(S'fun[.,;:]*'
p2
I2
tp3
Rp4
(dp5
S'categories'
p6
(lp7
S'0'
p8
asS'key'
p9
S'fun'
p10
ssg1
(S'Open-source[.,;:]*'
p11
I2
tp12
Rp13
(dp14
g6
(lp15
g8
aS'1'
p16
asg9
S'Open-source'
p17
ssg1
(S"making[a-z']*[.,;:]*"
p18
I2
tp19
Rp20
(dp21
g6
(lp22
g8
aS'5'
p23
aS'6'
p24
asg9
S'making*'
p25
ssg1
(S'p2p[.,;:]*'
p26
I2
tp27
Rp28
(dp29
g6
(lp30
g8
ag16
aS'2'
p31
aS'3'
p32
asg9
S'p2p'
p33
ssg1
(S'alternative[.,;:]*'
p34
I2
tp35
Rp36
(dp37
g6
(lp38
g8
ag24
asg9
S'alternative'
p39
ssg1
(S"design[a-z']*[.,;:]*"
p40
I2
tp41
Rp42
(dp43
g6
(lp44
g8
asg9
S'design*'
p45
ssg1
(S"green[a-z']*[.,;:]*"
p46
I2
tp47
Rp48
(dp49
g6
(lp50
g8
aS'4'
p51
asg9
S'green*'
p52
ssg1
(S'carbon-print[.,;:]*'
p53
I2
tp54
Rp55
(dp56
g6
(lp57
g51
aS'7'
p58
asg9
S'carbon-print'
p59
ssg1
(S'FOSS[.,;:]*'
p60
I2
tp61
Rp62
(dp63
g6
(lp64
g8
ag16
asg9
S'FOSS'
p65
ssg1
(S'cooperation[.,;:]*'
p66
I2
tp67
Rp68
(dp69
g6
(lp70
g8
ag32
asg9
S'cooperation'
p71
ssg1
(S"explor[a-z']*[.,;:]*"
p72
I2
tp73
Rp74
(dp75
g6
(lp76
g8
ag24
asg9
S'explor*'
p77
ssg1
(S"alter[a-z']*[.,;:]*"
p78
I2
tp79
Rp80
(dp81
g6
(lp82
g8
ag23
ag24
asg9
S'alter*'
p83
ssg1
(S're-use[.,;:]*'
p84
I2
tp85
Rp86
(dp87
g6
(lp88
g8
ag51
asg9
S're-use'
p89
ssg1
(S'user-driven[.,;:]*'
p90
I2
tp91
Rp92
(dp93
g6
(lp94
g8
ag51
ag23
asg9
S'user-driven'
p95
ssg1
(S'satisficing[.,;:]*'
p96
I2
tp97
Rp98
(dp99
g6
(lp100
g58
asg9
S'satisficing'
p101
ssg1
(S"craftsman[a-z']*[.,;:]*"
p102
I2
tp103
Rp104
(dp105
g6
(lp106
g8
ag23
asg9
S'craftsman*'
p107
ssg1
(S"free-software[a-z']*[.,;:]*"
p108
I2
tp109
Rp110
(dp111
g6
(lp112
g8
ag16
asg9
S'free-software*'
p113
ssg1
(S"enjoy[a-z']*[.,;:]*"
p114
I2
tp115
Rp116
(dp117
g6
(lp118
g8
asg9
S'enjoy*'
p119
ssg1
(S'transparency[.,;:]*'
p120
I2
tp121
Rp122
(dp123
g6
(lp124
g8
ag16
asg9
S'transparency'
p125
ssg1
(S'grassroots[.,;:]*'
p126
I2
tp127
Rp128
(dp129
g6
(lp130
g8
ag31
ag32
asg9
S'grassroots'
p131
ssg1
(S"learn[a-z']*[.,;:]*"
p132
I2
tp133
Rp134
(dp135
g6
(lp136
g8
asg9
S'learn*'
p137
ssg1
(S'industry[.,;:]*'
p138
I2
tp139
Rp140
(dp141
g6
(lp142
g58
asg9
S'industry'
p143
ssg1
(S'OSS[.,;:]*'
p144
I2
tp145
Rp146
(dp147
g6
(lp148
g8
ag16
asg9
S'OSS'
p149
ssg1
(S"invent[a-z']*[.,;:]*"
p150
I2
tp151
Rp152
(dp153
g6
(lp154
g8
ag24
asg9
S'invent*'
p155
ssg1
(S'profit[.,;:]*'
p156
I2
tp157
Rp158
(dp159
g6
(lp160
g58
asg9
S'profit'
p161
ssg1
(S"solv[a-z']*[.,;:]*"
p162
I2
tp163
Rp164
(dp165
g6
(lp166
g8
asg9
S'solv*'
p167
ssg1
(S'local[.,;:]*'
p168
I2
tp169
Rp170
(dp171
g6
(lp172
g8
ag51
asg9
S'local'
p173
ssg1
(S'consumption[.,;:]*'
p174
I2
tp175
Rp176
(dp177
g6
(lp178
g58
asg9
S'consumption'
p179
ssg1
(S'closed[.,;:]*'
p180
I2
tp181
Rp182
(dp183
g6
(lp184
g58
asg9
S'closed'
p185
ssg1
(S'durability[.,;:]*'
p186
I2
tp187
Rp188
(dp189
g6
(lp190
g8
ag51
asg9
S'durability'
p191
ssg1
(S'reciprocity[.,;:]*'
p192
I2
tp193
Rp194
(dp195
g6
(lp196
g8
ag16
ag31
asg9
S'reciprocity'
p197
ssg1
(S'carbon[.,;:]*'
p198
I2
tp199
Rp200
(dp201
g6
(lp202
g58
asg9
S'carbon'
p203
ssg1
(S'personalization[.,;:]*'
p204
I2
tp205
Rp206
(dp207
g6
(lp208
g8
ag23
asg9
S'personalization'
p209
ssg1
(S'changeable[.,;:]*'
p210
I2
tp211
Rp212
(dp213
g6
(lp214
g8
ag23
asg9
S'changeable'
p215
ssg1
(S'social[.,;:]*'
p216
I2
tp217
Rp218
(dp219
g6
(lp220
g8
ag16
ag31
ag32
asg9
S'social'
p221
ssg1
(S"creat[a-z']*[.,;:]*"
p222
I2
tp223
Rp224
(dp225
g6
(lp226
g8
ag23
ag24
asg9
S'creat*'
p227
ssg1
(S"co-validation[a-z']*[.,;:]*"
p228
I2
tp229
Rp230
(dp231
g6
(lp232
g8
ag24
asg9
S'co-validation*'
p233
ssg1
(S'disposable[.,;:]*'
p234
I2
tp235
Rp236
(dp237
g6
(lp238
g8
ag51
asg9
S'disposable'
p239
ssg1
(S'commons[.,;:]*'
p240
I2
tp241
Rp242
(dp243
g6
(lp244
g8
ag31
ag32
asg9
S'commons'
p245
ssg1
(S'planet[.,;:]*'
p246
I2
tp247
Rp248
(dp249
g6
(lp250
g8
ag51
asg9
S'planet'
p251
ssg1
(S"adopt[a-z']*[.,;:]*"
p252
I2
tp253
Rp254
(dp255
g6
(lp256
g8
ag23
asg9
S'adopt*'
p257
ssg1
(S"tool[a-z']*[.,;:]*"
p258
I2
tp259
Rp260
(dp261
g6
(lp262
g8
ag23
ag24
asg9
S'tool*'
p263
ssg1
(S"free[a-z']*[.,;:]*"
p264
I2
tp265
Rp266
(dp267
g6
(lp268
g8
ag16
asg9
S'free*'
p269
ssg1
(S"recycl[a-z']*[.,;:]*"
p270
I2
tp271
Rp272
(dp273
g6
(lp274
g8
ag51
asg9
S'recycl*'
p275
ssg1
(S'reuse[.,;:]*'
p276
I2
tp277
Rp278
(dp279
g6
(lp280
g8
ag51
asg9
S'reuse'
p281
ssg1
(S'F/OSS[.,;:]*'
p282
I2
tp283
Rp284
(dp285
g6
(lp286
g8
ag16
asg9
S'F/OSS'
p287
ssg1
(S'co-funding[.,;:]*'
p288
I2
tp289
Rp290
(dp291
g6
(lp292
g8
ag16
ag31
ag32
asg9
S'co-funding'
p293
ssg1
(S"functional[a-z']*[.,;:]*"
p294
I2
tp295
Rp296
(dp297
g6
(lp298
g8
ag24
asg9
S'functional*'
p299
ssg1
(S"participat[a-z']*[.,;:]*"
p300
I2
tp301
Rp302
(dp303
g6
(lp304
g8
ag32
asg9
S'participat*'
p305
ssg1
(S'DIY[.,;:]*'
p306
I2
tp307
Rp308
(dp309
g6
(lp310
g8
asg9
S'DIY'
p311
ssg1
(S'empathy[.,;:]*'
p312
I2
tp313
Rp314
(dp315
g6
(lp316
g8
aS'8'
p317
asg9
S'empathy'
p318
ssg1
(S"open[a-z']*[.,;:]*"
p319
I2
tp320
Rp321
(dp322
g6
(lp323
g8
ag16
asg9
S'open*'
p324
ssg1
(S"altruist[a-z']*[.,;:]*"
p325
I2
tp326
Rp327
(dp328
g6
(lp329
g8
ag31
ag32
asg9
S'altruist*'
p330
ssg1
(S"substitut[a-z']*[.,;:]*"
p331
I2
tp332
Rp333
(dp334
g6
(lp335
g8
ag23
ag24
asg9
S'substitut*'
p336
ssg1
(S"collective[a-z']*[.,;:]*"
p337
I2
tp338
Rp339
(dp340
g6
(lp341
g8
ag32
asg9
S'collective*'
p342
ssg1
(S"co-delivery[a-z']*[.,;:]*"
p343
I2
tp344
Rp345
(dp346
g6
(lp347
g8
ag32
ag51
asg9
S'co-delivery*'
p348
ssg1
(S'process[.,;:]*'
p349
I2
tp350
Rp351
(dp352
g6
(lp353
g8
ag24
asg9
S'process'
p354
ssg1
(S'contribute[.,;:]*'
p355
I2
tp356
Rp357
(dp358
g6
(lp359
g8
ag31
ag32
asg9
S'contribute'
p360
ssg1
(S"innovation[a-z']*[.,;:]*"
p361
I2
tp362
Rp363
(dp364
g6
(lp365
g8
ag24
asg9
S'innovation*'
p366
ssg1
(S'technology[.,;:]*'
p367
I2
tp368
Rp369
(dp370
g6
(lp371
g8
ag24
asg9
S'technology'
p372
ssg1
(S"custom[a-z']*[.,;:]*"
p373
I2
tp374
Rp375
(dp376
g6
(lp377
g8
ag23
asg9
S'custom*'
p378
ssg1
(S"sustainab[a-z']*[.,;:]*"
p379
I2
tp380
Rp381
(dp382
g6
(lp383
g8
ag51
asg9
S'sustainab*'
p384
ssg1
(S"opportunit[a-z']*[.,;:]*"
p385
I2
tp386
Rp387
(dp388
g6
(lp389
g8
ag317
asg9
S'opportunit*'
p390
ssg1
(S"environment[a-z']*[.,;:]*"
p391
I2
tp392
Rp393
(dp394
g6
(lp395
g8
ag51
asg9
S'environment*'
p396
ssg1
(S'propriety [.,;:]*'
p397
I2
tp398
Rp399
(dp400
g6
(lp401
g58
asg9
S'propriety '
p402
ssg1
(S'peer-to-peer[.,;:]*'
p403
I2
tp404
Rp405
(dp406
g6
(lp407
g8
ag16
ag31
ag32
asg9
S'peer-to-peer'
p408
ssg1
(S"multi-stakeholder[a-z']*[.,;:]*"
p409
I2
tp410
Rp411
(dp412
g6
(lp413
g8
ag317
asg9
S'multi-stakeholder*'
p414
ssg1
(S'personal[.,;:]*'
p415
I2
tp416
Rp417
(dp418
g6
(lp419
g8
ag23
asg9
S'personal'
p420
ssg1
(S"co-design[a-z']*[.,;:]*"
p421
I2
tp422
Rp423
(dp424
g6
(lp425
g8
ag16
ag31
ag32
ag24
asg9
S'co-design*'
p426
ssg1
(S"shar[a-z']*[.,;:]*"
p427
I2
tp428
Rp429
(dp430
g6
(lp431
g8
ag31
asg9
S'shar*'
p432
ssg1
(S'solution[.,;:]*'
p433
I2
tp434
Rp435
(dp436
g6
(lp437
g8
asg9
S'solution'
p438
ssg1
(S"make[a-z']*[.,;:]*"
p439
I2
tp440
Rp441
(dp442
g6
(lp443
g8
ag23
ag24
asg9
S'make*'
p444
ssg1
(S"climate[a-z']*[.,;:]*"
p445
I2
tp446
Rp447
(dp448
g6
(lp449
g8
ag51
asg9
S'climate*'
p450
ssg1
(S"choice[a-z']*[.,;:]*"
p451
I2
tp452
Rp453
(dp454
g6
(lp455
g8
ag24
ag317
asg9
S'choice*'
p456
ssg1
(S'progress[.,;:]*'
p457
I2
tp458
Rp459
(dp460
g6
(lp461
g8
ag24
asg9
S'progress'
p462
ssg1
(S"capital[a-z']*[.,;:]*"
p463
I2
tp464
Rp465
(dp466
g6
(lp467
g58
asg9
S'capital*'
p468
ssg1
(S"idea[a-z']*[.,;:]*"
p469
I2
tp470
Rp471
(dp472
g6
(lp473
g8
ag24
asg9
S'idea*'
p474
ssg1
(S"repair[a-z']*[.,;:]*"
p475
I2
tp476
Rp477
(dp478
g6
(lp479
g8
ag51
asg9
S'repair*'
p480
ssg1
(S"mass[a-z']*[.,;:]*"
p481
I2
tp482
Rp483
(dp484
g6
(lp485
g8
ag58
asg9
S'mass*'
p486
ssg1
(S'editable[.,;:]*'
p487
I2
tp488
Rp489
(dp490
g6
(lp491
g8
ag16
ag23
asg9
S'editable'
p492
ssg1
(S"democra[a-z']*[.,;:]*"
p493
I2
tp494
Rp495
(dp496
g6
(lp497
g8
ag317
asg9
S'democra*'
p498
ssg1
(S'do-it-yourself[.,;:]*'
p499
I2
tp500
Rp501
(dp502
g6
(lp503
g8
asg9
S'do-it-yourself'
p504
ssg1
(S'downloadable[.,;:]*'
p505
I2
tp506
Rp507
(dp508
g6
(lp509
g8
ag16
ag31
asg9
S'downloadable'
p510
ssg1
(S"equalit[a-z']*[.,;:]*"
p511
I2
tp512
Rp513
(dp514
g6
(lp515
g8
ag32
asg9
S'equalit*'
p516
ssg1
(S"discover[a-z']*[.,;:]*"
p517
I2
tp518
Rp519
(dp520
g6
(lp521
g8
ag24
asg9
S'discover*'
p522
ssg1
(S"re-cycl[a-z']*[.,;:]*"
p523
I2
tp524
Rp525
(dp526
g6
(lp527
g8
ag51
asg9
S're-cycl*'
p528
ssg1
(S"communit[a-z']*[.,;:]*"
p529
I2
tp530
Rp531
(dp532
g6
(lp533
g8
ag31
ag32
asg9
S'communit*'
p534
ssg1
(S"nature[a-z']*[.,;:]*"
p535
I2
tp536
Rp537
(dp538
g6
(lp539
g8
ag51
asg9
S'nature*'
p540
ssg1
(S"patent[a-z']*[.,;:]*"
p541
I2
tp542
Rp543
(dp544
g6
(lp545
g58
asg9
S'patent*'
p546
ssg1
(S"wasting[a-z']*[.,;:]*"
p547
I2
tp548
Rp549
(dp550
g6
(lp551
g58
asg9
S'wasting*'
p552
ssg1
(S"repurpose[a-z']*[.,;:]*"
p553
I2
tp554
Rp555
(dp556
g6
(lp557
g8
ag51
asg9
S'repurpose*'
p558
ssg1
(S"access[a-z']*[.,;:]*"
p559
I2
tp560
Rp561
(dp562
g6
(lp563
g8
ag16
asg9
S'access*'
p564
ssg1
(S"monopol[a-z']*[.,;:]*"
p565
I2
tp566
Rp567
(dp568
g6
(lp569
g58
asg9
S'monopol*'
p570
ssg1
(S"consumerism[a-z']*[.,;:]*"
p571
I2
tp572
Rp573
(dp574
g6
(lp575
g58
asg9
S'consumerism*'
p576
ssg1
(S'knowledge[.,;:]*'
p577
I2
tp578
Rp579
(dp580
g6
(lp581
g8
ag24
asg9
S'knowledge'
p582
ssg1
(S"empower[a-z']*[.,;:]*"
p583
I2
tp584
Rp585
(dp586
g6
(lp587
g8
asg9
S'empower*'
p588
ssg1
(S'F-OSS[.,;:]*'
p589
I2
tp590
Rp591
(dp592
g6
(lp593
g8
ag16
asg9
S'F-OSS'
p594
ss.