(dp0
cre
_compile
p1
(S'unfinished\\s+product[.,;:]*'
p2
I2
tp3
Rp4
(dp5
S'categories'
p6
(lp7
S'0'
p8
aS'5'
p9
asS'key'
p10
S'unfinished product'
p11
ssg1
(S"social\\s+relation[a-z']*[.,;:]*"
p12
I2
tp13
Rp14
(dp15
g6
(lp16
g8
aS'3'
p17
asg10
S'social relation*'
p18
ssg1
(S'democratization\\s+of\\s+making[.,;:]*'
p19
I2
tp20
Rp21
(dp22
g6
(lp23
g8
aS'1'
p24
aS'2'
p25
ag17
aS'4'
p26
ag9
aS'6'
p27
aS'8'
p28
asg10
S'democratization of making'
p29
ssg1
(S"social\\s+impact[a-z']*[.,;:]*"
p30
I2
tp31
Rp32
(dp33
g6
(lp34
g8
ag17
asg10
S'social impact*'
p35
ssg1
(S"own\\s+design[a-z']*[.,;:]*"
p36
I2
tp37
Rp38
(dp39
g6
(lp40
g8
ag9
ag27
asg10
S'own design*'
p41
ssg1
(S'available\\s+online[.,;:]*'
p42
I2
tp43
Rp44
(dp45
g6
(lp46
g8
ag24
ag25
asg10
S'available online'
p47
ssg1
(S'creative\\s+commons[.,;:]*'
p48
I2
tp49
Rp50
(dp51
g6
(lp52
g8
ag24
ag25
ag17
asg10
S'creative commons'
p53
ssg1
(S'ethical\\s+economy[.,;:]*'
p54
I2
tp55
Rp56
(dp57
g6
(lp58
g8
asg10
S'ethical economy'
p59
ssg1
(S"own\\s+idea[a-z']*[.,;:]*"
p60
I2
tp61
Rp62
(dp63
g6
(lp64
g8
ag9
ag27
asg10
S'own idea*'
p65
ssg1
(S"free\\s+rid[a-z']*[.,;:]*"
p66
I2
tp67
Rp68
(dp69
g6
(lp70
S'7'
p71
asg10
S'free rid*'
p72
ssg1
(S'personal\\s+fabrication[.,;:]*'
p73
I2
tp74
Rp75
(dp76
g6
(lp77
g8
ag9
ag27
asg10
S'personal fabrication'
p78
ssg1
(S'network-based\\s+society[.,;:]*'
p79
I2
tp80
Rp81
(dp82
g6
(lp83
g8
ag17
asg10
S'network-based society '
p84
ssg1
(S'non-hierarchical\\s+society[.,;:]*'
p85
I2
tp86
Rp87
(dp88
g6
(lp89
g8
ag28
asg10
S'non-hierarchical society'
p90
ssg1
(S"open\\s+manufact[a-z']*[.,;:]*"
p91
I2
tp92
Rp93
(dp94
g6
(lp95
g8
ag24
ag25
ag17
ag27
asg10
S'open manufact*'
p96
ssg1
(S'socialization\\s+of\\s+production[.,;:]*'
p97
I2
tp98
Rp99
(dp100
g6
(lp101
g8
ag24
ag25
ag17
ag26
asg10
S'socialization of production '
p102
ssg1
(S"own\\s+product[a-z']*[.,;:]*"
p103
I2
tp104
Rp105
(dp106
g6
(lp107
g8
ag9
ag27
asg10
S'own product*'
p108
ssg1
(S'mass\\s+production[.,;:]*'
p109
I2
tp110
Rp111
(dp112
g6
(lp113
g71
asg10
S'mass production'
p114
ssg1
(S'community\\s+based\\s+innovation[.,;:]*'
p115
I2
tp116
Rp117
(dp118
g6
(lp119
g8
ag17
ag27
asg10
S'community based innovation'
p120
ssg1
(S'environmental\\s+cause[.,;:]*'
p121
I2
tp122
Rp123
(dp124
g6
(lp125
g8
ag26
asg10
S'environmental cause'
p126
ssg1
(S"self\\s+sufficien[a-z']*[.,;:]*"
p127
I2
tp128
Rp129
(dp130
g6
(lp131
g8
ag26
asg10
S'self sufficien*'
p132
ssg1
(S'learning\\s+by\\s+doing[.,;:]*'
p133
I2
tp134
Rp135
(dp136
g6
(lp137
g8
asg10
S'learning by doing'
p138
ssg1
(S'non-judgmental\\s+society[.,;:]*'
p139
I2
tp140
Rp141
(dp142
g6
(lp143
g8
asg10
S'non-judgmental society'
p144
ssg1
(S"proprietary\\s+hardware[a-z']*[.,;:]*"
p145
I2
tp146
Rp147
(dp148
g6
(lp149
g71
asg10
S'proprietary hardware*'
p150
ssg1
(S'people\\s+centric[.,;:]*'
p151
I2
tp152
Rp153
(dp154
g6
(lp155
g8
asg10
S'people centric'
p156
ssg1
(S'open\\s+source[.,;:]*'
p157
I2
tp158
Rp159
(dp160
g6
(lp161
g8
ag24
asg10
S'open source '
p162
ssg1
(S'local\\s+culture[.,;:]*'
p163
I2
tp164
Rp165
(dp166
g6
(lp167
g8
asg10
S'local culture'
p168
ssg1
(S'technical\\s+cause[.,;:]*'
p169
I2
tp170
Rp171
(dp172
g6
(lp173
g8
ag27
asg10
S'technical cause'
p174
ssg1
(S'circular\\s+economy[.,;:]*'
p175
I2
tp176
Rp177
(dp178
g6
(lp179
g8
ag26
asg10
S'circular economy'
p180
ssg1
(S"problem\\s+sol[a-z']*[.,;:]*"
p181
I2
tp182
Rp183
(dp184
g6
(lp185
g8
asg10
S'problem sol*'
p186
ssg1
(S"free\\s+software[a-z']*[.,;:]*"
p187
I2
tp188
Rp189
(dp190
g6
(lp191
g8
ag24
asg10
S'free software*'
p192
ssg1
(S'no\\s+waste[.,;:]*'
p193
I2
tp194
Rp195
(dp196
g6
(lp197
g8
ag26
asg10
S'no waste'
p198
ssg1
(S'social\\s+responsibility[.,;:]*'
p199
I2
tp200
Rp201
(dp202
g6
(lp203
g8
ag17
asg10
S'social responsibility'
p204
ssg1
(S'collaborative\\s+learning[.,;:]*'
p205
I2
tp206
Rp207
(dp208
g6
(lp209
g8
ag24
ag25
asg10
S'collaborative learning'
p210
ssg1
(S"social\\s+cause[a-z']*[.,;:]*"
p211
I2
tp212
Rp213
(dp214
g6
(lp215
g8
ag17
asg10
S'social cause*'
p216
ssg1
(S'entrepreneurial\\s+support[.,;:]*'
p217
I2
tp218
Rp219
(dp220
g6
(lp221
g8
ag27
asg10
S'entrepreneurial support'
p222
ssg1
(S'artisan\\s+spirit[.,;:]*'
p223
I2
tp224
Rp225
(dp226
g6
(lp227
g8
ag9
ag27
asg10
S'artisan spirit'
p228
ssg1
(S"proprietary\\s+software[a-z']*[.,;:]*"
p229
I2
tp230
Rp231
(dp232
g6
(lp233
g71
asg10
S'proprietary software*'
p234
ssg1
(S'maker\\s+movement[.,;:]*'
p235
I2
tp236
Rp237
(dp238
g6
(lp239
g8
asg10
S'maker movement'
p240
ssg1
(S"personal\\s+custom[a-z']*[.,;:]*"
p241
I2
tp242
Rp243
(dp244
g6
(lp245
g8
ag9
asg10
S'personal custom*'
p246
ssg1
(S'do\\s+it\\s+yourself[.,;:]*'
p247
I2
tp248
Rp249
(dp250
g6
(lp251
g8
asg10
S'do it yourself'
p252
ssg1
(S'open\\s+design[.,;:]*'
p253
I2
tp254
Rp255
(dp256
g6
(lp257
g8
ag24
asg10
S'open design'
p258
ssg1
(S"corporate\\s+technolog[a-z']*[.,;:]*"
p259
I2
tp260
Rp261
(dp262
g6
(lp263
g71
asg10
S'corporate technolog*'
p264
ssg1
(S'collective\\s+good[.,;:]*'
p265
I2
tp266
Rp267
(dp268
g6
(lp269
g8
ag17
asg10
S'collective good'
p270
ssg1
(S'passive\\s+consumption[.,;:]*'
p271
I2
tp272
Rp273
(dp274
g6
(lp275
g71
asg10
S'passive consumption'
p276
ss.