(dp0
cre
_compile
p1
(S'mass\\s+production[.,;:]*'
p2
I2
tp3
Rp4
(dp5
S'categories'
p6
(lp7
S'7'
p8
asS'key'
p9
S'mass production'
p10
ssg1
(S'non-judgmental\\s+society[.,;:]*'
p11
I2
tp12
Rp13
(dp14
g6
(lp15
S'0'
p16
asg9
S'non-judgmental society'
p17
ssg1
(S"problem\\s+sol[a-z']*[.,;:]*"
p18
I2
tp19
Rp20
(dp21
g6
(lp22
g16
asg9
S'problem sol*'
p23
ssg1
(S'technical\\s+cause[.,;:]*'
p24
I2
tp25
Rp26
(dp27
g6
(lp28
g16
aS'6'
p29
asg9
S'technical cause'
p30
ssg1
(S'people\\s+centric[.,;:]*'
p31
I2
tp32
Rp33
(dp34
g6
(lp35
g16
asg9
S'people centric'
p36
ssg1
(S'learning\\s+by\\s+doing[.,;:]*'
p37
I2
tp38
Rp39
(dp40
g6
(lp41
g16
asg9
S'learning by doing'
p42
ssg1
(S'circular\\s+economy[.,;:]*'
p43
I2
tp44
Rp45
(dp46
g6
(lp47
g16
aS'4'
p48
asg9
S'circular economy'
p49
ssg1
(S'collaborative\\s+learning[.,;:]*'
p50
I2
tp51
Rp52
(dp53
g6
(lp54
g16
aS'1'
p55
aS'2'
p56
asg9
S'collaborative learning'
p57
ssg1
(S"proprietary\\s+hardware[a-z']*[.,;:]*"
p58
I2
tp59
Rp60
(dp61
g6
(lp62
g8
asg9
S'proprietary hardware*'
p63
ssg1
(S'social\\s+responsibility[.,;:]*'
p64
I2
tp65
Rp66
(dp67
g6
(lp68
g16
aS'3'
p69
asg9
S'social responsibility'
p70
ssg1
(S'passive\\s+consumption[.,;:]*'
p71
I2
tp72
Rp73
(dp74
g6
(lp75
g8
asg9
S'passive consumption'
p76
ssg1
(S"personal\\s+custom[a-z']*[.,;:]*"
p77
I2
tp78
Rp79
(dp80
g6
(lp81
g16
aS'5'
p82
asg9
S'personal custom*'
p83
ssg1
(S'artisan\\s+spirit[.,;:]*'
p84
I2
tp85
Rp86
(dp87
g6
(lp88
g16
ag82
ag29
asg9
S'artisan spirit'
p89
ssg1
(S'available\\s+online[.,;:]*'
p90
I2
tp91
Rp92
(dp93
g6
(lp94
g16
ag55
ag56
asg9
S'available online'
p95
ssg1
(S'unfinished\\s+product[.,;:]*'
p96
I2
tp97
Rp98
(dp99
g6
(lp100
g16
ag82
asg9
S'unfinished product'
p101
ssg1
(S'non-hierarchical\\s+society[.,;:]*'
p102
I2
tp103
Rp104
(dp105
g6
(lp106
g16
aS'8'
p107
asg9
S'non-hierarchical society'
p108
ssg1
(S'do\\s+it\\s+yourself[.,;:]*'
p109
I2
tp110
Rp111
(dp112
g6
(lp113
g16
asg9
S'do it yourself'
p114
ssg1
(S"open\\s+manufact[a-z']*[.,;:]*"
p115
I2
tp116
Rp117
(dp118
g6
(lp119
g16
ag55
ag56
ag69
ag29
asg9
S'open manufact*'
p120
ssg1
(S'socialization\\s+of\\s+production[.,;:]*'
p121
I2
tp122
Rp123
(dp124
g6
(lp125
g16
ag55
ag56
ag69
ag48
asg9
S'socialization of production '
p126
ssg1
(S'personal\\s+fabrication[.,;:]*'
p127
I2
tp128
Rp129
(dp130
g6
(lp131
g16
ag82
ag29
asg9
S'personal fabrication'
p132
ssg1
(S'maker\\s+movement[.,;:]*'
p133
I2
tp134
Rp135
(dp136
g6
(lp137
g16
asg9
S'maker movement'
p138
ssg1
(S'open\\s+source[.,;:]*'
p139
I2
tp140
Rp141
(dp142
g6
(lp143
g16
ag55
asg9
S'open source '
p144
ssg1
(S"social\\s+relation[a-z']*[.,;:]*"
p145
I2
tp146
Rp147
(dp148
g6
(lp149
g16
ag69
asg9
S'social relation*'
p150
ssg1
(S"own\\s+design[a-z']*[.,;:]*"
p151
I2
tp152
Rp153
(dp154
g6
(lp155
g16
ag82
ag29
asg9
S'own design*'
p156
ssg1
(S"social\\s+cause[a-z']*[.,;:]*"
p157
I2
tp158
Rp159
(dp160
g6
(lp161
g16
ag69
asg9
S'social cause*'
p162
ssg1
(S'community\\s+based\\s+innovation[.,;:]*'
p163
I2
tp164
Rp165
(dp166
g6
(lp167
g16
ag69
ag29
asg9
S'community based innovation'
p168
ssg1
(S'no\\s+waste[.,;:]*'
p169
I2
tp170
Rp171
(dp172
g6
(lp173
g16
ag48
asg9
S'no waste'
p174
ssg1
(S'entrepreneurial\\s+support[.,;:]*'
p175
I2
tp176
Rp177
(dp178
g6
(lp179
g16
ag29
asg9
S'entrepreneurial support'
p180
ssg1
(S"own\\s+product[a-z']*[.,;:]*"
p181
I2
tp182
Rp183
(dp184
g6
(lp185
g16
ag82
ag29
asg9
S'own product*'
p186
ssg1
(S"free\\s+rid[a-z']*[.,;:]*"
p187
I2
tp188
Rp189
(dp190
g6
(lp191
g8
asg9
S'free rid*'
p192
ssg1
(S"self\\s+sufficien[a-z']*[.,;:]*"
p193
I2
tp194
Rp195
(dp196
g6
(lp197
g16
ag48
asg9
S'self sufficien*'
p198
ssg1
(S'creative\\s+commons[.,;:]*'
p199
I2
tp200
Rp201
(dp202
g6
(lp203
g16
ag55
ag56
ag69
asg9
S'creative commons'
p204
ssg1
(S'network-based\\s+society[.,;:]*'
p205
I2
tp206
Rp207
(dp208
g6
(lp209
g16
ag69
asg9
S'network-based society '
p210
ssg1
(S'environmental\\s+cause[.,;:]*'
p211
I2
tp212
Rp213
(dp214
g6
(lp215
g16
ag48
asg9
S'environmental cause'
p216
ssg1
(S'democratization\\s+of\\s+making[.,;:]*'
p217
I2
tp218
Rp219
(dp220
g6
(lp221
g16
ag55
ag56
ag69
ag48
ag82
ag29
ag107
asg9
S'democratization of making'
p222
ssg1
(S'local\\s+culture[.,;:]*'
p223
I2
tp224
Rp225
(dp226
g6
(lp227
g16
asg9
S'local culture'
p228
ssg1
(S"own\\s+idea[a-z']*[.,;:]*"
p229
I2
tp230
Rp231
(dp232
g6
(lp233
g16
ag82
ag29
asg9
S'own idea*'
p234
ssg1
(S"corporate\\s+technolog[a-z']*[.,;:]*"
p235
I2
tp236
Rp237
(dp238
g6
(lp239
g8
asg9
S'corporate technolog*'
p240
ssg1
(S'ethical\\s+economy[.,;:]*'
p241
I2
tp242
Rp243
(dp244
g6
(lp245
g16
asg9
S'ethical economy'
p246
ssg1
(S"proprietary\\s+software[a-z']*[.,;:]*"
p247
I2
tp248
Rp249
(dp250
g6
(lp251
g8
asg9
S'proprietary software*'
p252
ssg1
(S'open\\s+design[.,;:]*'
p253
I2
tp254
Rp255
(dp256
g6
(lp257
g16
ag55
asg9
S'open design'
p258
ssg1
(S"free\\s+software[a-z']*[.,;:]*"
p259
I2
tp260
Rp261
(dp262
g6
(lp263
g16
ag55
asg9
S'free software*'
p264
ssg1
(S"social\\s+impact[a-z']*[.,;:]*"
p265
I2
tp266
Rp267
(dp268
g6
(lp269
g16
ag69
asg9
S'social impact*'
p270
ssg1
(S'collective\\s+good[.,;:]*'
p271
I2
tp272
Rp273
(dp274
g6
(lp275
g16
ag69
asg9
S'collective good'
p276
ss.