(dp0
S'ThePiHut'
p1
(dp2
S'scores'
p3
(dp4
S'all'
p5
(dp6
S'per_word'
p7
F0.030819434372733864
sS'raw'
p8
F85.0
sS'per_tweet'
p9
F0.4427083333333333
ssS'1'
p10
(dp11
g7
F0.0025380710659898475
sg8
F7.0
sg9
F0.036458333333333336
ssS'0'
p12
(dp13
g7
F0.013415518491660623
sg8
F37.0
sg9
F0.19270833333333334
ssS'5'
p14
(dp15
g7
F0.006526468455402465
sg8
F18.0
sg9
F0.09375
ssS'4'
p16
(dp17
g7
F0.0014503263234227702
sg8
F4.0
sg9
F0.020833333333333332
ssS'7'
p18
(dp19
g7
F0.0007251631617113851
sg8
F2.0
sg9
F0.010416666666666666
ssS'6'
p20
(dp21
g7
F0.006163886874546773
sg8
F17.0
sg9
F0.08854166666666667
sssS'source'
p22
I0
sS'ntweets'
p23
I192
sS'nmappings'
p24
I85
sS'nwords'
p25
I2758
ssS'My3DPrinting'
p26
(dp27
g3
(dp28
g5
(dp29
g7
F0.0625
sg8
F145.0
sg9
F0.7397959183673469
ssg10
(dp30
g7
F0.003017241379310345
sg8
F7.0
sg9
F0.03571428571428571
ssg12
(dp31
g7
F0.029741379310344828
sg8
F69.0
sg9
F0.3520408163265306
ssS'3'
p32
(dp33
g7
F0.0008620689655172414
sg8
F2.0
sg9
F0.01020408163265306
ssS'2'
p34
(dp35
g7
F0.0008620689655172414
sg8
F2.0
sg9
F0.01020408163265306
ssg14
(dp36
g7
F0.011206896551724138
sg8
F26.0
sg9
F0.1326530612244898
ssg16
(dp37
g7
F0.001293103448275862
sg8
F3.0
sg9
F0.015306122448979591
ssg18
(dp38
g7
F0.003017241379310345
sg8
F7.0
sg9
F0.03571428571428571
ssg20
(dp39
g7
F0.01163793103448276
sg8
F27.0
sg9
F0.1377551020408163
ssS'8'
p40
(dp41
g7
F0.0008620689655172414
sg8
F2.0
sg9
F0.01020408163265306
sssg22
I0
sg23
I196
sg24
I145
sg25
I2320
ssS'3dsystems'
p42
(dp43
g3
(dp44
g5
(dp45
g7
F0.04612337294850028
sg8
F163.0
sg9
F0.8232323232323232
ssg10
(dp46
g7
F0.0011318619128466328
sg8
F4.0
sg9
F0.020202020202020204
ssg12
(dp47
g7
F0.025466893039049237
sg8
F90.0
sg9
F0.45454545454545453
ssg32
(dp48
g7
F0.0002829654782116582
sg8
F1.0
sg9
F0.005050505050505051
ssg34
(dp49
g7
F0.0002829654782116582
sg8
F1.0
sg9
F0.005050505050505051
ssg14
(dp50
g7
F0.00622524052065648
sg8
F22.0
sg9
F0.1111111111111111
ssg16
(dp51
g7
F0.0002829654782116582
sg8
F1.0
sg9
F0.005050505050505051
ssg18
(dp52
g7
F0.0014148273910582908
sg8
F5.0
sg9
F0.025252525252525252
ssg20
(dp53
g7
F0.010752688172043012
sg8
F38.0
sg9
F0.1919191919191919
ssg40
(dp54
g7
F0.0002829654782116582
sg8
F1.0
sg9
F0.005050505050505051
sssg22
I0
sg23
I198
sg24
I163
sg25
I3534
ssS'lifehacker'
p55
(dp56
g3
(dp57
g5
(dp58
g7
F0.034200213751335945
sg8
F96.0
sg9
F0.48
ssg10
(dp59
g7
F0.0014250089063056644
sg8
F4.0
sg9
F0.02
ssg12
(dp60
g7
F0.014962593516209476
sg8
F42.0
sg9
F0.21
ssg32
(dp61
g7
F0.0007125044531528322
sg8
F2.0
sg9
F0.01
ssg34
(dp62
g7
F0.0010687566797292483
sg8
F3.0
sg9
F0.015
ssg14
(dp63
g7
F0.007481296758104738
sg8
F21.0
sg9
F0.105
ssg18
(dp64
g7
F0.0010687566797292483
sg8
F3.0
sg9
F0.015
ssg20
(dp65
g7
F0.007481296758104738
sg8
F21.0
sg9
F0.105
sssg22
I0
sg23
I200
sg24
I96
sg25
I2807
ssS'3DPrintGirl'
p66
(dp67
g3
(dp68
g5
(dp69
g7
F0.0625
sg8
F145.0
sg9
F0.7397959183673469
ssg10
(dp70
g7
F0.003017241379310345
sg8
F7.0
sg9
F0.03571428571428571
ssg12
(dp71
g7
F0.029741379310344828
sg8
F69.0
sg9
F0.3520408163265306
ssg32
(dp72
g7
F0.0008620689655172414
sg8
F2.0
sg9
F0.01020408163265306
ssg34
(dp73
g7
F0.0008620689655172414
sg8
F2.0
sg9
F0.01020408163265306
ssg14
(dp74
g7
F0.011206896551724138
sg8
F26.0
sg9
F0.1326530612244898
ssg16
(dp75
g7
F0.001293103448275862
sg8
F3.0
sg9
F0.015306122448979591
ssg18
(dp76
g7
F0.003017241379310345
sg8
F7.0
sg9
F0.03571428571428571
ssg20
(dp77
g7
F0.01163793103448276
sg8
F27.0
sg9
F0.1377551020408163
ssg40
(dp78
g7
F0.0008620689655172414
sg8
F2.0
sg9
F0.01020408163265306
sssg22
I0
sg23
I196
sg24
I145
sg25
I2320
ssS'dangerousproto'
p79
(dp80
g3
(dp81
g5
(dp82
g7
F0.08358570563294973
sg8
F138.0
sg9
F0.7582417582417582
ssg10
(dp83
g7
F0.027256208358570563
sg8
F45.0
sg9
F0.24725274725274726
ssg12
(dp84
g7
F0.04542701393095094
sg8
F75.0
sg9
F0.41208791208791207
ssg34
(dp85
g7
F0.0006056935190793458
sg8
F1.0
sg9
F0.005494505494505495
ssg14
(dp86
g7
F0.0024227740763173833
sg8
F4.0
sg9
F0.02197802197802198
ssg16
(dp87
g7
F0.0030284675953967293
sg8
F5.0
sg9
F0.027472527472527472
ssg18
(dp88
g7
F0.0006056935190793458
sg8
F1.0
sg9
F0.005494505494505495
ssg20
(dp89
g7
F0.004239854633555421
sg8
F7.0
sg9
F0.038461538461538464
sssg22
I0
sg23
I182
sg24
I138
sg25
I1651
ssS'pimoroni'
p90
(dp91
g3
(dp92
g5
(dp93
g7
F0.01991150442477876
sg8
F63.0
sg9
F0.3298429319371728
ssg10
(dp94
g7
F0.0006321112515802782
sg8
F2.0
sg9
F0.010471204188481676
ssg12
(dp95
g7
F0.009165613147914033
sg8
F29.0
sg9
F0.1518324607329843
ssg34
(dp96
g7
F0.0003160556257901391
sg8
F1.0
sg9
F0.005235602094240838
ssg14
(dp97
g7
F0.0037926675094816687
sg8
F12.0
sg9
F0.06282722513089005
ssg18
(dp98
g7
F0.0003160556257901391
sg8
F1.0
sg9
F0.005235602094240838
ssg20
(dp99
g7
F0.005689001264222503
sg8
F18.0
sg9
F0.09424083769633508
sssg22
I0
sg23
I191
sg24
I63
sg25
I3164
ssS'makerfaire'
p100
(dp101
g3
(dp102
g5
(dp103
g7
F0.08917197452229299
sg8
F266.0
sg9
F1.4148936170212767
ssg10
(dp104
g7
F0.00033523298692591353
sg8
F1.0
sg9
F0.005319148936170213
ssg12
(dp105
g7
F0.03486423064029501
sg8
F104.0
sg9
F0.5531914893617021
ssg32
(dp106
g7
F0.0013409319477036541
sg8
F4.0
sg9
F0.02127659574468085
ssg34
(dp107
g7
F0.0023466309084813944
sg8
F7.0
sg9
F0.03723404255319149
ssg14
(dp108
g7
F0.02212537713711029
sg8
F66.0
sg9
F0.35106382978723405
ssg16
(dp109
g7
F0.0010056989607777405
sg8
F3.0
sg9
F0.015957446808510637
ssg18
(dp110
g7
F0.00033523298692591353
sg8
F1.0
sg9
F0.005319148936170213
ssg20
(dp111
g7
F0.026483405967147166
sg8
F79.0
sg9
F0.42021276595744683
ssg40
(dp112
g7
F0.00033523298692591353
sg8
F1.0
sg9
F0.005319148936170213
sssg22
I0
sg23
I188
sg24
I266
sg25
I2983
ssS'shapeways'
p113
(dp114
g3
(dp115
g5
(dp116
g7
F0.0626830697129467
sg8
F214.0
sg9
F1.0753768844221105
ssg10
(dp117
g7
F0.0046865846514352666
sg8
F16.0
sg9
F0.08040201005025126
ssg12
(dp118
g7
F0.03046280023432923
sg8
F104.0
sg9
F0.5226130653266332
ssg32
(dp119
g7
F0.0011716461628588166
sg8
F4.0
sg9
F0.020100502512562814
ssg34
(dp120
g7
F0.0026362038664323375
sg8
F9.0
sg9
F0.04522613065326633
ssg14
(dp121
g7
F0.011130638547158758
sg8
F38.0
sg9
F0.19095477386934673
ssg18
(dp122
g7
F0.00029291154071470416
sg8
F1.0
sg9
F0.005025125628140704
ssg20
(dp123
g7
F0.01200937316930287
sg8
F41.0
sg9
F0.20603015075376885
ssg40
(dp124
g7
F0.00029291154071470416
sg8
F1.0
sg9
F0.005025125628140704
sssg22
I0
sg23
I199
sg24
I214
sg25
I3414
ssS'3dprintindustry'
p125
(dp126
g3
(dp127
g5
(dp128
g7
F0.03970880211780278
sg8
F120.0
sg9
F0.6185567010309279
ssg10
(dp129
g7
F0.0026472534745201853
sg8
F8.0
sg9
F0.041237113402061855
ssg12
(dp130
g7
F0.013567174056915949
sg8
F41.0
sg9
F0.211340206185567
ssg14
(dp131
g7
F0.00628722700198544
sg8
F19.0
sg9
F0.0979381443298969
ssg18
(dp132
g7
F0.010589013898080741
sg8
F32.0
sg9
F0.16494845360824742
ssg20
(dp133
g7
F0.00628722700198544
sg8
F19.0
sg9
F0.0979381443298969
ssg40
(dp134
g7
F0.00033090668431502316
sg8
F1.0
sg9
F0.005154639175257732
sssg22
I0
sg23
I194
sg24
I120
sg25
I3022
ssS'3dprinting3d'
p135
(dp136
g3
(dp137
g5
(dp138
g7
F0.04771784232365145
sg8
F138.0
sg9
F0.6934673366834171
ssg10
(dp139
g7
F0.001037344398340249
sg8
F3.0
sg9
F0.01507537688442211
ssg12
(dp140
g7
F0.020055325034578148
sg8
F58.0
sg9
F0.2914572864321608
ssg34
(dp141
g7
F0.00034578146611341634
sg8
F1.0
sg9
F0.005025125628140704
ssg14
(dp142
g7
F0.008644536652835409
sg8
F25.0
sg9
F0.12562814070351758
ssg16
(dp143
g7
F0.0017289073305670815
sg8
F5.0
sg9
F0.02512562814070352
ssg18
(dp144
g7
F0.005186721991701245
sg8
F15.0
sg9
F0.07537688442211055
ssg20
(dp145
g7
F0.01037344398340249
sg8
F30.0
sg9
F0.1507537688442211
ssg40
(dp146
g7
F0.00034578146611341634
sg8
F1.0
sg9
F0.005025125628140704
sssg22
I0
sg23
I199
sg24
I138
sg25
I2892
ssS'ModMyPi'
p147
(dp148
g3
(dp149
g5
(dp150
g7
F0.030536451169188447
sg8
F111.0
sg9
F0.5692307692307692
ssg10
(dp151
g7
F0.002200825309491059
sg8
F8.0
sg9
F0.041025641025641026
ssg12
(dp152
g7
F0.013755158184319119
sg8
F50.0
sg9
F0.2564102564102564
ssg32
(dp153
g7
F0.0002751031636863824
sg8
F1.0
sg9
F0.005128205128205128
ssg34
(dp154
g7
F0.001375515818431912
sg8
F5.0
sg9
F0.02564102564102564
ssg14
(dp155
g7
F0.0068775790921595595
sg8
F25.0
sg9
F0.1282051282051282
ssg18
(dp156
g7
F0.0005502063273727648
sg8
F2.0
sg9
F0.010256410256410256
ssg20
(dp157
g7
F0.005502063273727648
sg8
F20.0
sg9
F0.10256410256410256
sssg22
I0
sg23
I195
sg24
I111
sg25
I3635
ssS'hackaday'
p158
(dp159
g3
(dp160
g5
(dp161
g7
F0.05261151353412123
sg8
F138.0
sg9
F0.711340206185567
ssg10
(dp162
g7
F0.0041936713686618375
sg8
F11.0
sg9
F0.05670103092783505
ssg12
(dp163
g7
F0.024399542508577964
sg8
F64.0
sg9
F0.32989690721649484
ssg32
(dp164
g7
F0.0019062142584826535
sg8
F5.0
sg9
F0.02577319587628866
ssg34
(dp165
g7
F0.002668699961875715
sg8
F7.0
sg9
F0.03608247422680412
ssg14
(dp166
g7
F0.008006099885627144
sg8
F21.0
sg9
F0.10824742268041238
ssg16
(dp167
g7
F0.0007624857033930614
sg8
F2.0
sg9
F0.010309278350515464
ssg20
(dp168
g7
F0.01067479984750286
sg8
F28.0
sg9
F0.14432989690721648
sssg22
I0
sg23
I194
sg24
I138
sg25
I2623
ssS'MicrochipMakes'
p169
(dp170
g3
(dp171
g5
(dp172
g7
F0.05968212779759974
sg8
F184.0
sg9
F0.9246231155778895
ssg10
(dp173
g7
F0.005514109633473889
sg8
F17.0
sg9
F0.08542713567839195
ssg12
(dp174
g7
F0.026921829386960753
sg8
F83.0
sg9
F0.41708542713567837
ssg32
(dp175
g7
F0.0003243593902043464
sg8
F1.0
sg9
F0.005025125628140704
ssg34
(dp176
g7
F0.0003243593902043464
sg8
F1.0
sg9
F0.005025125628140704
ssg14
(dp177
g7
F0.012974375608173857
sg8
F40.0
sg9
F0.20100502512562815
ssg16
(dp178
g7
F0.0006487187804086928
sg8
F2.0
sg9
F0.010050251256281407
ssg20
(dp179
g7
F0.012974375608173857
sg8
F40.0
sg9
F0.20100502512562815
sssg22
I0
sg23
I199
sg24
I184
sg25
I3083
ssS'adafruit'
p180
(dp181
g3
(dp182
g5
(dp183
g7
F0.04874499818115678
sg8
F134.0
sg9
F0.7127659574468085
ssg10
(dp184
g7
F0.0018188432157148053
sg8
F5.0
sg9
F0.026595744680851064
ssg12
(dp185
g7
F0.022917424518006546
sg8
F63.0
sg9
F0.3351063829787234
ssg32
(dp186
g7
F0.0010913059294288831
sg8
F3.0
sg9
F0.015957446808510637
ssg34
(dp187
g7
F0.0014550745725718443
sg8
F4.0
sg9
F0.02127659574468085
ssg14
(dp188
g7
F0.008730447435431065
sg8
F24.0
sg9
F0.1276595744680851
ssg16
(dp189
g7
F0.0010913059294288831
sg8
F3.0
sg9
F0.015957446808510637
ssg18
(dp190
g7
F0.0003637686431429611
sg8
F1.0
sg9
F0.005319148936170213
ssg20
(dp191
g7
F0.011276827937431793
sg8
F31.0
sg9
F0.16489361702127658
sssg22
I0
sg23
I188
sg24
I134
sg25
I2749
ssS'3dersorg'
p192
(dp193
g3
(dp194
g5
(dp195
g7
F0.0443452380952381
sg8
F149.0
sg9
F0.764102564102564
ssg10
(dp196
g7
F0.003273809523809524
sg8
F11.0
sg9
F0.05641025641025641
ssg12
(dp197
g7
F0.022023809523809525
sg8
F74.0
sg9
F0.37948717948717947
ssg32
(dp198
g7
F0.00029761904761904765
sg8
F1.0
sg9
F0.005128205128205128
ssg14
(dp199
g7
F0.008035714285714285
sg8
F27.0
sg9
F0.13846153846153847
ssg16
(dp200
g7
F0.0005952380952380953
sg8
F2.0
sg9
F0.010256410256410256
ssg18
(dp201
g7
F0.002380952380952381
sg8
F8.0
sg9
F0.041025641025641026
ssg20
(dp202
g7
F0.007738095238095238
sg8
F26.0
sg9
F0.13333333333333333
sssg22
I0
sg23
I195
sg24
I149
sg25
I3360
ssS'3dprintingcom'
p203
(dp204
g3
(dp205
g10
(dp206
g7
F0.0007437709185570844
sg8
F2.0
sg9
F0.010256410256410256
ssg12
(dp207
g7
F0.01859427296392711
sg8
F50.0
sg9
F0.2564102564102564
ssg5
(dp208
g7
F0.039419858683525474
sg8
F106.0
sg9
F0.5435897435897435
ssg14
(dp209
g7
F0.004462625511342506
sg8
F12.0
sg9
F0.06153846153846154
ssg18
(dp210
g7
F0.004090740052063964
sg8
F11.0
sg9
F0.05641025641025641
ssg20
(dp211
g7
F0.011528449237634809
sg8
F31.0
sg9
F0.15897435897435896
sssg22
I0
sg23
I195
sg24
I106
sg25
I2689
ssS'htpc_guides'
p212
(dp213
g3
(dp214
g10
(dp215
g7
F0.004750593824228029
sg8
F8.0
sg9
F0.050314465408805034
ssg12
(dp216
g7
F0.019596199524940617
sg8
F33.0
sg9
F0.20754716981132076
ssg5
(dp217
g7
F0.040973871733966744
sg8
F69.0
sg9
F0.4339622641509434
ssg14
(dp218
g7
F0.012470308788598575
sg8
F21.0
sg9
F0.1320754716981132
ssg20
(dp219
g7
F0.004156769596199525
sg8
F7.0
sg9
F0.0440251572327044
sssg22
I0
sg23
I159
sg24
I69
sg25
I1684
ssS'ColorFabb'
p220
(dp221
g3
(dp222
g5
(dp223
g7
F0.03274628508530545
sg8
F119.0
sg9
F0.6363636363636364
ssg10
(dp224
g7
F0.003577325261419923
sg8
F13.0
sg9
F0.06951871657754011
ssg12
(dp225
g7
F0.015410016510731976
sg8
F56.0
sg9
F0.2994652406417112
ssg34
(dp226
g7
F0.000275178866263071
sg8
F1.0
sg9
F0.0053475935828877
ssg14
(dp227
g7
F0.0049532195927352776
sg8
F18.0
sg9
F0.0962566844919786
ssg16
(dp228
g7
F0.000550357732526142
sg8
F2.0
sg9
F0.0106951871657754
ssg18
(dp229
g7
F0.000550357732526142
sg8
F2.0
sg9
F0.0106951871657754
ssg20
(dp230
g7
F0.007429829389102917
sg8
F27.0
sg9
F0.1443850267379679
sssg22
I0
sg23
I187
sg24
I119
sg25
I3634
ssS'xKaliSec'
p231
(dp232
g3
(dp233
g5
(dp234
g7
F0.07607192254495158
sg8
F165.0
sg9
F0.9065934065934066
ssg10
(dp235
g7
F0.004149377593360996
sg8
F9.0
sg9
F0.04945054945054945
ssg12
(dp236
g7
F0.033656062701705854
sg8
F73.0
sg9
F0.4010989010989011
ssg14
(dp237
g7
F0.01705855232826187
sg8
F37.0
sg9
F0.2032967032967033
ssg18
(dp238
g7
F0.0004610419548178884
sg8
F1.0
sg9
F0.005494505494505495
ssg20
(dp239
g7
F0.02028584601198709
sg8
F44.0
sg9
F0.24175824175824176
ssg40
(dp240
g7
F0.0004610419548178884
sg8
F1.0
sg9
F0.005494505494505495
sssg22
I0
sg23
I182
sg24
I165
sg25
I2169
ssS'make'
p241
(dp242
g3
(dp243
g5
(dp244
g7
F0.10621761658031088
sg8
F369.0
sg9
F1.8730964467005076
ssg10
(dp245
g7
F0.0005757052389176742
sg8
F2.0
sg9
F0.01015228426395939
ssg12
(dp246
g7
F0.04317789291882556
sg8
F150.0
sg9
F0.7614213197969543
ssg32
(dp247
g7
F0.0017271157167530224
sg8
F6.0
sg9
F0.030456852791878174
ssg34
(dp248
g7
F0.0031663788140472078
sg8
F11.0
sg9
F0.05583756345177665
ssg14
(dp249
g7
F0.02475532527345999
sg8
F86.0
sg9
F0.4365482233502538
ssg16
(dp250
g7
F0.0017271157167530224
sg8
F6.0
sg9
F0.030456852791878174
ssg18
(dp251
g7
F0.0011514104778353484
sg8
F4.0
sg9
F0.02030456852791878
ssg20
(dp252
g7
F0.029936672423719057
sg8
F104.0
sg9
F0.5279187817258884
sssg22
I0
sg23
I197
sg24
I369
sg25
I3474
ssS'Pi_Borg'
p253
(dp254
g3
(dp255
g5
(dp256
g7
F0.015705018777739842
sg8
F46.0
sg9
F0.23711340206185566
ssg10
(dp257
g7
F0.0010242403550699897
sg8
F3.0
sg9
F0.015463917525773196
ssg12
(dp258
g7
F0.007852509388869921
sg8
F23.0
sg9
F0.11855670103092783
ssg34
(dp259
g7
F0.0006828269033799932
sg8
F2.0
sg9
F0.010309278350515464
ssg14
(dp260
g7
F0.0027313076135199728
sg8
F8.0
sg9
F0.041237113402061855
ssg20
(dp261
g7
F0.0030727210652099694
sg8
F9.0
sg9
F0.04639175257731959
ssg40
(dp262
g7
F0.0003414134516899966
sg8
F1.0
sg9
F0.005154639175257732
sssg22
I0
sg23
I194
sg24
I46
sg25
I2929
ssS'instructables'
p263
(dp264
g3
(dp265
g5
(dp266
g7
F0.0784557907845579
sg8
F126.0
sg9
F0.7
ssg10
(dp267
g7
F0.0006226650062266501
sg8
F1.0
sg9
F0.005555555555555556
ssg12
(dp268
g7
F0.03798256537982565
sg8
F61.0
sg9
F0.3388888888888889
ssg34
(dp269
g7
F0.0006226650062266501
sg8
F1.0
sg9
F0.005555555555555556
ssg14
(dp270
g7
F0.0186799501867995
sg8
F30.0
sg9
F0.16666666666666666
ssg16
(dp271
g7
F0.0006226650062266501
sg8
F1.0
sg9
F0.005555555555555556
ssg18
(dp272
g7
F0.0012453300124533001
sg8
F2.0
sg9
F0.011111111111111112
ssg20
(dp273
g7
F0.0186799501867995
sg8
F30.0
sg9
F0.16666666666666666
sssg22
I0
sg23
I180
sg24
I126
sg25
I1606
ssS'linuxfoundation'
p274
(dp275
g3
(dp276
g5
(dp277
g7
F0.09761388286334056
sg8
F360.0
sg9
F1.8274111675126903
ssg10
(dp278
g7
F0.025759219088937094
sg8
F95.0
sg9
F0.48223350253807107
ssg12
(dp279
g7
F0.04934924078091106
sg8
F182.0
sg9
F0.9238578680203046
ssg32
(dp280
g7
F0.003796095444685466
sg8
F14.0
sg9
F0.07106598984771574
ssg34
(dp281
g7
F0.0067787418655097615
sg8
F25.0
sg9
F0.12690355329949238
ssg14
(dp282
g7
F0.0027114967462039045
sg8
F10.0
sg9
F0.050761421319796954
ssg16
(dp283
g7
F0.0005422993492407809
sg8
F2.0
sg9
F0.01015228426395939
ssg18
(dp284
g7
F0.0010845986984815619
sg8
F4.0
sg9
F0.02030456852791878
ssg20
(dp285
g7
F0.0070498915401301515
sg8
F26.0
sg9
F0.1319796954314721
ssg40
(dp286
g7
F0.0005422993492407809
sg8
F2.0
sg9
F0.01015228426395939
sssg22
I0
sg23
I197
sg24
I360
sg25
I3688
ssS'freetronics'
p287
(dp288
g3
(dp289
g5
(dp290
g7
F0.06944444444444445
sg8
F185.0
sg9
F0.9893048128342246
ssg10
(dp291
g7
F0.027402402402402402
sg8
F73.0
sg9
F0.39037433155080214
ssg12
(dp292
g7
F0.03678678678678678
sg8
F98.0
sg9
F0.5240641711229946
ssg14
(dp293
g7
F0.0015015015015015015
sg8
F4.0
sg9
F0.0213903743315508
ssg16
(dp294
g7
F0.0011261261261261261
sg8
F3.0
sg9
F0.016042780748663103
ssg18
(dp295
g7
F0.0007507507507507507
sg8
F2.0
sg9
F0.0106951871657754
ssg20
(dp296
g7
F0.0018768768768768769
sg8
F5.0
sg9
F0.026737967914438502
sssg22
I0
sg23
I187
sg24
I185
sg25
I2664
ssS'3DPrintingIt'
p297
(dp298
g3
(dp299
g5
(dp300
g7
F0.0625
sg8
F145.0
sg9
F0.7397959183673469
ssg10
(dp301
g7
F0.003017241379310345
sg8
F7.0
sg9
F0.03571428571428571
ssg12
(dp302
g7
F0.029741379310344828
sg8
F69.0
sg9
F0.3520408163265306
ssg32
(dp303
g7
F0.0008620689655172414
sg8
F2.0
sg9
F0.01020408163265306
ssg34
(dp304
g7
F0.0008620689655172414
sg8
F2.0
sg9
F0.01020408163265306
ssg14
(dp305
g7
F0.011206896551724138
sg8
F26.0
sg9
F0.1326530612244898
ssg16
(dp306
g7
F0.001293103448275862
sg8
F3.0
sg9
F0.015306122448979591
ssg18
(dp307
g7
F0.003017241379310345
sg8
F7.0
sg9
F0.03571428571428571
ssg20
(dp308
g7
F0.01163793103448276
sg8
F27.0
sg9
F0.1377551020408163
ssg40
(dp309
g7
F0.0008620689655172414
sg8
F2.0
sg9
F0.01020408163265306
sssg22
I0
sg23
I196
sg24
I145
sg25
I2320
ssS'androidcentral'
p310
(dp311
g3
(dp312
g10
(dp313
g7
F0.0036315615714757345
sg8
F11.0
sg9
F0.05583756345177665
ssg12
(dp314
g7
F0.00957411687025421
sg8
F29.0
sg9
F0.14720812182741116
ssg5
(dp315
g7
F0.021789369428854406
sg8
F66.0
sg9
F0.3350253807106599
ssg14
(dp316
g7
F0.0036315615714757345
sg8
F11.0
sg9
F0.05583756345177665
ssg20
(dp317
g7
F0.00462198745460548
sg8
F14.0
sg9
F0.07106598984771574
ssg40
(dp318
g7
F0.0003301419610432486
sg8
F1.0
sg9
F0.005076142131979695
sssg22
I0
sg23
I197
sg24
I66
sg25
I3029
ssS'Ultimaker'
p319
(dp320
g3
(dp321
g5
(dp322
g7
F0.07565011820330969
sg8
F288.0
sg9
F1.5078534031413613
ssg10
(dp323
g7
F0.001313370107696349
sg8
F5.0
sg9
F0.02617801047120419
ssg12
(dp324
g7
F0.03835040714473339
sg8
F146.0
sg9
F0.7643979057591623
ssg32
(dp325
g7
F0.0007880220646178094
sg8
F3.0
sg9
F0.015706806282722512
ssg34
(dp326
g7
F0.0036774363015497765
sg8
F14.0
sg9
F0.07329842931937172
ssg14
(dp327
g7
F0.010506960861570791
sg8
F40.0
sg9
F0.2094240837696335
ssg16
(dp328
g7
F0.0007880220646178094
sg8
F3.0
sg9
F0.015706806282722512
ssg18
(dp329
g7
F0.0005253480430785396
sg8
F2.0
sg9
F0.010471204188481676
ssg20
(dp330
g7
F0.019700551615445233
sg8
F75.0
sg9
F0.39267015706806285
sssg22
I0
sg23
I191
sg24
I288
sg25
I3807
ssS'3dprinting'
p331
(dp332
g3
(dp333
g5
(dp334
g7
F0.04720161834120027
sg8
F140.0
sg9
F0.8045977011494253
ssg10
(dp335
g7
F0.004720161834120027
sg8
F14.0
sg9
F0.08045977011494253
ssg12
(dp336
g7
F0.024275118004045852
sg8
F72.0
sg9
F0.41379310344827586
ssg32
(dp337
g7
F0.00033715441672285906
sg8
F1.0
sg9
F0.005747126436781609
ssg34
(dp338
g7
F0.00033715441672285906
sg8
F1.0
sg9
F0.005747126436781609
ssg14
(dp339
g7
F0.008091706001348618
sg8
F24.0
sg9
F0.13793103448275862
ssg16
(dp340
g7
F0.0006743088334457181
sg8
F2.0
sg9
F0.011494252873563218
ssg18
(dp341
g7
F0.00033715441672285906
sg8
F1.0
sg9
F0.005747126436781609
ssg20
(dp342
g7
F0.008428860418071477
sg8
F25.0
sg9
F0.14367816091954022
sssg22
I0
sg23
I174
sg24
I140
sg25
I2966
ssS'3DPrintBoard'
p343
(dp344
g3
(dp345
g5
(dp346
g7
F0.05982215036378335
sg8
F148.0
sg9
F0.7551020408163265
ssg10
(dp347
g7
F0.0032336297493936943
sg8
F8.0
sg9
F0.04081632653061224
ssg12
(dp348
g7
F0.02869846402586904
sg8
F71.0
sg9
F0.3622448979591837
ssg32
(dp349
g7
F0.0008084074373484236
sg8
F2.0
sg9
F0.01020408163265306
ssg34
(dp350
g7
F0.0008084074373484236
sg8
F2.0
sg9
F0.01020408163265306
ssg14
(dp351
g7
F0.010509296685529508
sg8
F26.0
sg9
F0.1326530612244898
ssg16
(dp352
g7
F0.0012126111560226355
sg8
F3.0
sg9
F0.015306122448979591
ssg18
(dp353
g7
F0.0028294260307194824
sg8
F7.0
sg9
F0.03571428571428571
ssg20
(dp354
g7
F0.010913500404203719
sg8
F27.0
sg9
F0.1377551020408163
ssg40
(dp355
g7
F0.0008084074373484236
sg8
F2.0
sg9
F0.01020408163265306
sssg22
I0
sg23
I196
sg24
I148
sg25
I2474
ssS'planetarduino'
p356
(dp357
g3
(dp358
g5
(dp359
g7
F0.06446540880503145
sg8
F123.0
sg9
F0.6577540106951871
ssg10
(dp360
g7
F0.0020964360587002098
sg8
F4.0
sg9
F0.0213903743315508
ssg12
(dp361
g7
F0.027777777777777776
sg8
F53.0
sg9
F0.28342245989304815
ssg14
(dp362
g7
F0.01310272536687631
sg8
F25.0
sg9
F0.13368983957219252
ssg16
(dp363
g7
F0.0020964360587002098
sg8
F4.0
sg9
F0.0213903743315508
ssg18
(dp364
g7
F0.0015723270440251573
sg8
F3.0
sg9
F0.016042780748663103
ssg20
(dp365
g7
F0.01781970649895178
sg8
F34.0
sg9
F0.18181818181818182
sssg22
I0
sg23
I187
sg24
I123
sg25
I1908
ssS'Raspberry_Pi'
p366
(dp367
g3
(dp368
g5
(dp369
g7
F0.05252198056455345
sg8
F227.0
sg9
F1.1884816753926701
ssg10
(dp370
g7
F0.006015733456732994
sg8
F26.0
sg9
F0.13612565445026178
ssg12
(dp371
g7
F0.023831559463211475
sg8
F103.0
sg9
F0.5392670157068062
ssg32
(dp372
g7
F0.0013882461823229986
sg8
F6.0
sg9
F0.031413612565445025
ssg34
(dp373
g7
F0.0034706154558074966
sg8
F15.0
sg9
F0.07853403141361257
ssg14
(dp374
g7
F0.0071726052753354926
sg8
F31.0
sg9
F0.16230366492146597
ssg16
(dp375
g7
F0.0006941230911614993
sg8
F3.0
sg9
F0.015706806282722512
ssg18
(dp376
g7
F0.00046274872744099955
sg8
F2.0
sg9
F0.010471204188481676
ssg20
(dp377
g7
F0.00925497454881999
sg8
F40.0
sg9
F0.2094240837696335
ssg40
(dp378
g7
F0.00023137436372049977
sg8
F1.0
sg9
F0.005235602094240838
sssg22
I0
sg23
I191
sg24
I227
sg25
I4322
ssS'RSComponents'
p379
(dp380
g3
(dp381
g5
(dp382
g7
F0.07049345417925479
sg8
F280.0
sg9
F1.407035175879397
ssg10
(dp383
g7
F0.004783484390735146
sg8
F19.0
sg9
F0.09547738693467336
ssg12
(dp384
g7
F0.03449144008056395
sg8
F137.0
sg9
F0.6884422110552764
ssg32
(dp385
g7
F0.00025176233635448137
sg8
F1.0
sg9
F0.005025125628140704
ssg34
(dp386
g7
F0.0012588116817724068
sg8
F5.0
sg9
F0.02512562814070352
ssg14
(dp387
g7
F0.008559919436052367
sg8
F34.0
sg9
F0.1708542713567839
ssg16
(dp388
g7
F0.002014098690835851
sg8
F8.0
sg9
F0.04020100502512563
ssg18
(dp389
g7
F0.0015105740181268882
sg8
F6.0
sg9
F0.03015075376884422
ssg20
(dp390
g7
F0.017371601208459216
sg8
F69.0
sg9
F0.34673366834170855
ssg40
(dp391
g7
F0.00025176233635448137
sg8
F1.0
sg9
F0.005025125628140704
sssg22
I0
sg23
I199
sg24
I280
sg25
I3972
ssS'TheMagP1'
p392
(dp393
g3
(dp394
g5
(dp395
g7
F0.02947920078611202
sg8
F90.0
sg9
F0.4639175257731959
ssg10
(dp396
g7
F0.003930560104814936
sg8
F12.0
sg9
F0.061855670103092786
ssg12
(dp397
g7
F0.013429413691451031
sg8
F41.0
sg9
F0.211340206185567
ssg32
(dp398
g7
F0.00032754667540124465
sg8
F1.0
sg9
F0.005154639175257732
ssg34
(dp399
g7
F0.0013101867016049786
sg8
F4.0
sg9
F0.020618556701030927
ssg14
(dp400
g7
F0.003930560104814936
sg8
F12.0
sg9
F0.061855670103092786
ssg16
(dp401
g7
F0.00032754667540124465
sg8
F1.0
sg9
F0.005154639175257732
ssg18
(dp402
g7
F0.00032754667540124465
sg8
F1.0
sg9
F0.005154639175257732
ssg20
(dp403
g7
F0.005895840157222404
sg8
F18.0
sg9
F0.09278350515463918
sssg22
I0
sg23
I194
sg24
I90
sg25
I3053
ssS'mbanzi'
p404
(dp405
g3
(dp406
g5
(dp407
g7
F0.05201863354037267
sg8
F134.0
sg9
F0.8023952095808383
ssg10
(dp408
g7
F0.006599378881987578
sg8
F17.0
sg9
F0.10179640718562874
ssg12
(dp409
g7
F0.023291925465838508
sg8
F60.0
sg9
F0.3592814371257485
ssg32
(dp410
g7
F0.003105590062111801
sg8
F8.0
sg9
F0.04790419161676647
ssg34
(dp411
g7
F0.002717391304347826
sg8
F7.0
sg9
F0.041916167664670656
ssg14
(dp412
g7
F0.005046583850931677
sg8
F13.0
sg9
F0.07784431137724551
ssg18
(dp413
g7
F0.0019409937888198758
sg8
F5.0
sg9
F0.029940119760479042
ssg20
(dp414
g7
F0.008152173913043478
sg8
F21.0
sg9
F0.12574850299401197
ssg40
(dp415
g7
F0.0011645962732919255
sg8
F3.0
sg9
F0.017964071856287425
sssg22
I0
sg23
I167
sg24
I134
sg25
I2576
ssS'fabbaloo'
p416
(dp417
g3
(dp418
g5
(dp419
g7
F0.06502636203866433
sg8
F148.0
sg9
F0.7551020408163265
ssg10
(dp420
g7
F0.006590509666080844
sg8
F15.0
sg9
F0.07653061224489796
ssg12
(dp421
g7
F0.032952548330404216
sg8
F75.0
sg9
F0.3826530612244898
ssg32
(dp422
g7
F0.0013181019332161687
sg8
F3.0
sg9
F0.015306122448979591
ssg34
(dp423
g7
F0.0008787346221441124
sg8
F2.0
sg9
F0.01020408163265306
ssg14
(dp424
g7
F0.008347978910369069
sg8
F19.0
sg9
F0.09693877551020408
ssg16
(dp425
g7
F0.0008787346221441124
sg8
F2.0
sg9
F0.01020408163265306
ssg18
(dp426
g7
F0.0021968365553602814
sg8
F5.0
sg9
F0.025510204081632654
ssg20
(dp427
g7
F0.011862917398945518
sg8
F27.0
sg9
F0.1377551020408163
sssg22
I0
sg23
I196
sg24
I148
sg25
I2276
ssS'imaterialise'
p428
(dp429
g3
(dp430
g5
(dp431
g7
F0.05567584287039901
sg8
F180.0
sg9
F0.9424083769633508
ssg10
(dp432
g7
F0.0024744819053510673
sg8
F8.0
sg9
F0.041884816753926704
ssg12
(dp433
g7
F0.030312403340550572
sg8
F98.0
sg9
F0.5130890052356021
ssg34
(dp434
g7
F0.0006186204763377668
sg8
F2.0
sg9
F0.010471204188481676
ssg14
(dp435
g7
F0.008351376430559852
sg8
F27.0
sg9
F0.14136125654450263
ssg20
(dp436
g7
F0.013300340241261985
sg8
F43.0
sg9
F0.225130890052356
ssg40
(dp437
g7
F0.0006186204763377668
sg8
F2.0
sg9
F0.010471204188481676
sssg22
I0
sg23
I191
sg24
I180
sg25
I3233
ssS'StackSocial'
p438
(dp439
g3
(dp440
g5
(dp441
g7
F0.06788079470198675
sg8
F205.0
sg9
F1.025
ssg10
(dp442
g7
F0.0076158940397350995
sg8
F23.0
sg9
F0.115
ssg12
(dp443
g7
F0.03145695364238411
sg8
F95.0
sg9
F0.475
ssg32
(dp444
g7
F0.004635761589403974
sg8
F14.0
sg9
F0.07
ssg34
(dp445
g7
F0.005629139072847682
sg8
F17.0
sg9
F0.085
ssg14
(dp446
g7
F0.005960264900662252
sg8
F18.0
sg9
F0.09
ssg16
(dp447
g7
F0.001986754966887417
sg8
F6.0
sg9
F0.03
ssg18
(dp448
g7
F0.0013245033112582781
sg8
F4.0
sg9
F0.02
ssg20
(dp449
g7
F0.008278145695364239
sg8
F25.0
sg9
F0.125
ssg40
(dp450
g7
F0.0009933774834437086
sg8
F3.0
sg9
F0.015
sssg22
I0
sg23
I200
sg24
I205
sg25
I3020
ssS'RealSexyCyborg'
p451
(dp452
g3
(dp453
g5
(dp454
g7
F0.03310562270099842
sg8
F126.0
sg9
F0.7
ssg10
(dp455
g7
F0.002627430373095113
sg8
F10.0
sg9
F0.05555555555555555
ssg12
(dp456
g7
F0.01602732527588019
sg8
F61.0
sg9
F0.3388888888888889
ssg32
(dp457
g7
F0.0010509721492380452
sg8
F4.0
sg9
F0.022222222222222223
ssg34
(dp458
g7
F0.0013137151865475565
sg8
F5.0
sg9
F0.027777777777777776
ssg14
(dp459
g7
F0.005517603783499738
sg8
F21.0
sg9
F0.11666666666666667
ssg16
(dp460
g7
F0.0005254860746190226
sg8
F2.0
sg9
F0.011111111111111112
ssg20
(dp461
g7
F0.00604308985811876
sg8
F23.0
sg9
F0.12777777777777777
sssg22
I0
sg23
I180
sg24
I126
sg25
I3806
ssS'RPiSpy'
p462
(dp463
g3
(dp464
g5
(dp465
g7
F0.03655793025871766
sg8
F130.0
sg9
F0.6666666666666666
ssg10
(dp466
g7
F0.003374578177727784
sg8
F12.0
sg9
F0.06153846153846154
ssg12
(dp467
g7
F0.016310461192350956
sg8
F58.0
sg9
F0.29743589743589743
ssg34
(dp468
g7
F0.00028121484814398203
sg8
F1.0
sg9
F0.005128205128205128
ssg14
(dp469
g7
F0.006186726659167604
sg8
F22.0
sg9
F0.11282051282051282
ssg16
(dp470
g7
F0.003093363329583802
sg8
F11.0
sg9
F0.05641025641025641
ssg18
(dp471
g7
F0.000843644544431946
sg8
F3.0
sg9
F0.015384615384615385
ssg20
(dp472
g7
F0.006186726659167604
sg8
F22.0
sg9
F0.11282051282051282
ssg40
(dp473
g7
F0.00028121484814398203
sg8
F1.0
sg9
F0.005128205128205128
sssg22
I0
sg23
I195
sg24
I130
sg25
I3556
ssS'arduinoblog'
p474
(dp475
g3
(dp476
g5
(dp477
g7
F0.12928827444956478
sg8
F505.0
sg9
F2.5376884422110555
ssg10
(dp478
g7
F0.010752688172043012
sg8
F42.0
sg9
F0.21105527638190955
ssg12
(dp479
g7
F0.05504352278545827
sg8
F215.0
sg9
F1.0804020100502512
ssg32
(dp480
g7
F0.002560163850486431
sg8
F10.0
sg9
F0.05025125628140704
ssg34
(dp481
g7
F0.005120327700972862
sg8
F20.0
sg9
F0.10050251256281408
ssg14
(dp482
g7
F0.023297491039426525
sg8
F91.0
sg9
F0.457286432160804
ssg18
(dp483
g7
F0.006144393241167435
sg8
F24.0
sg9
F0.12060301507537688
ssg20
(dp484
g7
F0.02636968766001024
sg8
F103.0
sg9
F0.5175879396984925
sssg22
I0
sg23
I199
sg24
I505
sg25
I3906
ssS'seeedstudio'
p485
(dp486
g3
(dp487
g5
(dp488
g7
F0.04705495228693649
sg8
F143.0
sg9
F0.7988826815642458
ssg10
(dp489
g7
F0.0029615004935834156
sg8
F9.0
sg9
F0.05027932960893855
ssg12
(dp490
g7
F0.022704837117472853
sg8
F69.0
sg9
F0.3854748603351955
ssg32
(dp491
g7
F0.0003290556103981573
sg8
F1.0
sg9
F0.00558659217877095
ssg34
(dp492
g7
F0.0009871668311944718
sg8
F3.0
sg9
F0.01675977653631285
ssg14
(dp493
g7
F0.008555445870352089
sg8
F26.0
sg9
F0.1452513966480447
ssg16
(dp494
g7
F0.0009871668311944718
sg8
F3.0
sg9
F0.01675977653631285
ssg18
(dp495
g7
F0.0003290556103981573
sg8
F1.0
sg9
F0.00558659217877095
ssg20
(dp496
g7
F0.009542612701546561
sg8
F29.0
sg9
F0.16201117318435754
ssg40
(dp497
g7
F0.0006581112207963146
sg8
F2.0
sg9
F0.0111731843575419
sssg22
I0
sg23
I179
sg24
I143
sg25
I3039
ssVbulentozel
p498
(dp499
S'scores'
p500
(dp501
S'all'
p502
(dp503
S'per_word'
p504
F0.12365591397849462
sS'raw'
p505
F23.0
sS'per_tweet'
p506
F1.5333333333333334
ssS'1'
p507
(dp508
g504
F0.021505376344086023
sg505
F4.0
sg506
F0.26666666666666666
ssS'0'
p509
(dp510
g504
F0.06451612903225806
sg505
F12.0
sg506
F0.8
ssS'3'
p511
(dp512
g504
F0.005376344086021506
sg505
F1.0
sg506
F0.06666666666666667
ssS'2'
p513
(dp514
g504
F0.005376344086021506
sg505
F1.0
sg506
F0.06666666666666667
ssS'5'
p515
(dp516
g504
F0.005376344086021506
sg505
F1.0
sg506
F0.06666666666666667
ssS'4'
p517
(dp518
g504
F0.005376344086021506
sg505
F1.0
sg506
F0.06666666666666667
ssS'6'
p519
(dp520
g504
F0.016129032258064516
sg505
F3.0
sg506
F0.2
sssS'source'
p521
I1
sS'ntweets'
p522
I15
sS'nmappings'
p523
I23
sS'nwords'
p524
I186
ssS'3DHubs'
p525
(dp526
g3
(dp527
g5
(dp528
g7
F0.04786836200448766
sg8
F192.0
sg9
F0.9746192893401016
ssg12
(dp529
g7
F0.02243829468960359
sg8
F90.0
sg9
F0.45685279187817257
ssg32
(dp530
g7
F0.0009972575417601596
sg8
F4.0
sg9
F0.02030456852791878
ssg34
(dp531
g7
F0.002742458239840439
sg8
F11.0
sg9
F0.05583756345177665
ssg14
(dp532
g7
F0.008726003490401396
sg8
F35.0
sg9
F0.17766497461928935
ssg16
(dp533
g7
F0.0004986287708800798
sg8
F2.0
sg9
F0.01015228426395939
ssg18
(dp534
g7
F0.0002493143854400399
sg8
F1.0
sg9
F0.005076142131979695
ssg20
(dp535
g7
F0.011967090501121914
sg8
F48.0
sg9
F0.2436548223350254
ssg40
(dp536
g7
F0.0002493143854400399
sg8
F1.0
sg9
F0.005076142131979695
sssg22
I0
sg23
I197
sg24
I192
sg25
I4011
ssS'3DPrintingFans'
p537
(dp538
g3
(dp539
g5
(dp540
g7
F0.0625
sg8
F145.0
sg9
F0.7397959183673469
ssg10
(dp541
g7
F0.003017241379310345
sg8
F7.0
sg9
F0.03571428571428571
ssg12
(dp542
g7
F0.029741379310344828
sg8
F69.0
sg9
F0.3520408163265306
ssg32
(dp543
g7
F0.0008620689655172414
sg8
F2.0
sg9
F0.01020408163265306
ssg34
(dp544
g7
F0.0008620689655172414
sg8
F2.0
sg9
F0.01020408163265306
ssg14
(dp545
g7
F0.011206896551724138
sg8
F26.0
sg9
F0.1326530612244898
ssg16
(dp546
g7
F0.001293103448275862
sg8
F3.0
sg9
F0.015306122448979591
ssg18
(dp547
g7
F0.003017241379310345
sg8
F7.0
sg9
F0.03571428571428571
ssg20
(dp548
g7
F0.01163793103448276
sg8
F27.0
sg9
F0.1377551020408163
ssg40
(dp549
g7
F0.0008620689655172414
sg8
F2.0
sg9
F0.01020408163265306
sssg22
I0
sg23
I196
sg24
I145
sg25
I2320
ssS'element14'
p550
(dp551
g3
(dp552
g5
(dp553
g7
F0.058823529411764705
sg8
F208.0
sg9
F1.04
ssg10
(dp554
g7
F0.003110859728506787
sg8
F11.0
sg9
F0.055
ssg12
(dp555
g7
F0.029694570135746605
sg8
F105.0
sg9
F0.525
ssg32
(dp556
g7
F0.003110859728506787
sg8
F11.0
sg9
F0.055
ssg34
(dp557
g7
F0.004524886877828055
sg8
F16.0
sg9
F0.08
ssg14
(dp558
g7
F0.005656108597285068
sg8
F20.0
sg9
F0.1
ssg16
(dp559
g7
F0.0025452488687782806
sg8
F9.0
sg9
F0.045
ssg18
(dp560
g7
F0.0005656108597285068
sg8
F2.0
sg9
F0.01
ssg20
(dp561
g7
F0.009615384615384616
sg8
F34.0
sg9
F0.17
sssg22
I0
sg23
I200
sg24
I208
sg25
I3536
ssS'sparkfun'
p562
(dp563
g3
(dp564
g5
(dp565
g7
F0.042111019961717254
sg8
F154.0
sg9
F0.7938144329896907
ssg10
(dp566
g7
F0.0013672409078479629
sg8
F5.0
sg9
F0.02577319587628866
ssg12
(dp567
g7
F0.019414820891441073
sg8
F71.0
sg9
F0.36597938144329895
ssg32
(dp568
g7
F0.0008203445447087777
sg8
F3.0
sg9
F0.015463917525773196
ssg34
(dp569
g7
F0.0027344818156959257
sg8
F10.0
sg9
F0.05154639175257732
ssg14
(dp570
g7
F0.007109652720809406
sg8
F26.0
sg9
F0.13402061855670103
ssg16
(dp571
g7
F0.0008203445447087777
sg8
F3.0
sg9
F0.015463917525773196
ssg18
(dp572
g7
F0.0008203445447087777
sg8
F3.0
sg9
F0.015463917525773196
ssg20
(dp573
g7
F0.008750341810226962
sg8
F32.0
sg9
F0.16494845360824742
ssg40
(dp574
g7
F0.00027344818156959256
sg8
F1.0
sg9
F0.005154639175257732
sssg22
I0
sg23
I194
sg24
I154
sg25
I3657
ssS'arduino'
p575
(dp576
g3
(dp577
g5
(dp578
g7
F0.07710011507479862
sg8
F201.0
sg9
F1.1229050279329609
ssg10
(dp579
g7
F0.004986574606827772
sg8
F13.0
sg9
F0.07262569832402235
ssg12
(dp580
g7
F0.03375527426160337
sg8
F88.0
sg9
F0.49162011173184356
ssg32
(dp581
g7
F0.0003835826620636747
sg8
F1.0
sg9
F0.00558659217877095
ssg34
(dp582
g7
F0.0003835826620636747
sg8
F1.0
sg9
F0.00558659217877095
ssg14
(dp583
g7
F0.017644802454929037
sg8
F46.0
sg9
F0.2569832402234637
ssg16
(dp584
g7
F0.0011507479861910242
sg8
F3.0
sg9
F0.01675977653631285
ssg18
(dp585
g7
F0.0003835826620636747
sg8
F1.0
sg9
F0.00558659217877095
ssg20
(dp586
g7
F0.018411967779056387
sg8
F48.0
sg9
F0.2681564245810056
sssg22
I0
sg23
I179
sg24
I201
sg25
I2607
ssS'3d_printers'
p587
(dp588
g3
(dp589
g5
(dp590
g7
F0.04942630185348632
sg8
F168.0
sg9
F0.8527918781725888
ssg10
(dp591
g7
F0.0014710208884966167
sg8
F5.0
sg9
F0.025380710659898477
ssg12
(dp592
g7
F0.025007355104442484
sg8
F85.0
sg9
F0.43147208121827413
ssg32
(dp593
g7
F0.0005884083553986466
sg8
F2.0
sg9
F0.01015228426395939
ssg34
(dp594
g7
F0.0029420417769932335
sg8
F10.0
sg9
F0.050761421319796954
ssg14
(dp595
g7
F0.005884083553986467
sg8
F20.0
sg9
F0.10152284263959391
ssg16
(dp596
g7
F0.0002942041776993233
sg8
F1.0
sg9
F0.005076142131979695
ssg18
(dp597
g7
F0.0023536334215945864
sg8
F8.0
sg9
F0.04060913705583756
ssg20
(dp598
g7
F0.01059135039717564
sg8
F36.0
sg9
F0.18274111675126903
ssg40
(dp599
g7
F0.0002942041776993233
sg8
F1.0
sg9
F0.005076142131979695
sssg22
I0
sg23
I197
sg24
I168
sg25
I3399
ssS'makerbot'
p600
(dp601
g3
(dp602
g5
(dp603
g7
F0.13937191798598494
sg8
F537.0
sg9
F2.698492462311558
ssg10
(dp604
g7
F0.008045678691928368
sg8
F31.0
sg9
F0.15577889447236182
ssg12
(dp605
g7
F0.06228912535686478
sg8
F240.0
sg9
F1.2060301507537687
ssg32
(dp606
g7
F0.0002595380223202699
sg8
F1.0
sg9
F0.005025125628140704
ssg34
(dp607
g7
F0.0007786140669608098
sg8
F3.0
sg9
F0.01507537688442211
ssg14
(dp608
g7
F0.03348040487931482
sg8
F129.0
sg9
F0.6482412060301508
ssg16
(dp609
g7
F0.0010381520892810796
sg8
F4.0
sg9
F0.020100502512562814
ssg20
(dp610
g7
F0.03348040487931482
sg8
F129.0
sg9
F0.6482412060301508
sssg22
I0
sg23
I199
sg24
I537
sg25
I3853
ssS'CodeClub'
p611
(dp612
g3
(dp613
g5
(dp614
g7
F0.04289980993755091
sg8
F158.0
sg9
F0.8020304568527918
ssg10
(dp615
g7
F0.005701873472712463
sg8
F21.0
sg9
F0.1065989847715736
ssg12
(dp616
g7
F0.021992940537605213
sg8
F81.0
sg9
F0.41116751269035534
ssg32
(dp617
g7
F0.0008145533532446375
sg8
F3.0
sg9
F0.015228426395939087
ssg34
(dp618
g7
F0.002986695628563671
sg8
F11.0
sg9
F0.05583756345177665
ssg14
(dp619
g7
F0.0038012489818083084
sg8
F14.0
sg9
F0.07106598984771574
ssg16
(dp620
g7
F0.0005430355688297583
sg8
F2.0
sg9
F0.01015228426395939
ssg18
(dp621
g7
F0.00027151778441487917
sg8
F1.0
sg9
F0.005076142131979695
ssg20
(dp622
g7
F0.006244909041542221
sg8
F23.0
sg9
F0.116751269035533
ssg40
(dp623
g7
F0.0005430355688297583
sg8
F2.0
sg9
F0.01015228426395939
sssg22
I0
sg23
I197
sg24
I158
sg25
I3683
ssS'MakerShed'
p624
(dp625
g3
(dp626
g5
(dp627
g7
F0.0615815255423373
sg8
F176.0
sg9
F0.8888888888888888
ssg10
(dp628
g7
F0.00244926522043387
sg8
F7.0
sg9
F0.03535353535353535
ssg12
(dp629
g7
F0.02589223233030091
sg8
F74.0
sg9
F0.37373737373737376
ssg32
(dp630
g7
F0.0010496850944716584
sg8
F3.0
sg9
F0.015151515151515152
ssg34
(dp631
g7
F0.0031490552834149755
sg8
F9.0
sg9
F0.045454545454545456
ssg14
(dp632
g7
F0.013995801259622114
sg8
F40.0
sg9
F0.20202020202020202
ssg20
(dp633
g7
F0.015045486354093772
sg8
F43.0
sg9
F0.21717171717171718
sssg22
I0
sg23
I198
sg24
I176
sg25
I2858
ss.