(dp0
S'ThePiHut'
p1
(dp2
S'scores'
p3
(dp4
S'all'
p5
(dp6
S'per_word'
p7
F0.02251708886208283
sS'raw'
p8
F56.0
sS'per_tweet'
p9
F0.2994652406417112
ssS'1'
p10
(dp11
g7
F0.0048250904704463205
sg8
F12.0
sg9
F0.06417112299465241
ssS'0'
p12
(dp13
g7
F0.010454362685967028
sg8
F26.0
sg9
F0.13903743315508021
ssS'5'
p14
(dp15
g7
F0.0036188178528347406
sg8
F9.0
sg9
F0.0481283422459893
ssS'4'
p16
(dp17
g7
F0.0004020908725371934
sg8
F1.0
sg9
F0.0053475935828877
ssS'6'
p18
(dp19
g7
F0.003216726980297547
sg8
F8.0
sg9
F0.0427807486631016
sssS'source'
p20
I0
sS'ntweets'
p21
I187
sS'nmappings'
p22
I56
sS'nwords'
p23
I2487
ssS'My3DPrinting'
p24
(dp25
g3
(dp26
g5
(dp27
g7
F0.05934150076569678
sg8
F155.0
sg9
F0.775
ssg10
(dp28
g7
F0.002297090352220521
sg8
F6.0
sg9
F0.03
ssg12
(dp29
g7
F0.031010719754977028
sg8
F81.0
sg9
F0.405
ssS'2'
p30
(dp31
g7
F0.0011485451761102604
sg8
F3.0
sg9
F0.015
ssg14
(dp32
g7
F0.007274119448698315
sg8
F19.0
sg9
F0.095
ssg16
(dp33
g7
F0.0011485451761102604
sg8
F3.0
sg9
F0.015
ssS'7'
p34
(dp35
g7
F0.002297090352220521
sg8
F6.0
sg9
F0.03
ssg18
(dp36
g7
F0.013782542113323124
sg8
F36.0
sg9
F0.18
ssS'8'
p37
(dp38
g7
F0.00038284839203675346
sg8
F1.0
sg9
F0.005
sssg20
I0
sg21
I200
sg22
I155
sg23
I2612
ssS'3dsystems'
p39
(dp40
g3
(dp41
g5
(dp42
g7
F0.0581784952787085
sg8
F191.0
sg9
F0.9695431472081218
ssg10
(dp43
g7
F0.0015229972586049345
sg8
F5.0
sg9
F0.025380710659898477
ssg12
(dp44
g7
F0.031069144075540664
sg8
F102.0
sg9
F0.5177664974619289
ssg30
(dp45
g7
F0.0012183978068839476
sg8
F4.0
sg9
F0.02030456852791878
ssg14
(dp46
g7
F0.007919585744745659
sg8
F26.0
sg9
F0.1319796954314721
ssg16
(dp47
g7
F0.0003045994517209869
sg8
F1.0
sg9
F0.005076142131979695
ssg34
(dp48
g7
F0.003655193420651843
sg8
F12.0
sg9
F0.06091370558375635
ssg18
(dp49
g7
F0.012183978068839476
sg8
F40.0
sg9
F0.20304568527918782
ssg37
(dp50
g7
F0.0003045994517209869
sg8
F1.0
sg9
F0.005076142131979695
sssg20
I0
sg21
I197
sg22
I191
sg23
I3283
ssS'lifehacker'
p51
(dp52
g3
(dp53
g5
(dp54
g7
F0.03491755577109602
sg8
F108.0
sg9
F0.54
ssg10
(dp55
g7
F0.003556417717426447
sg8
F11.0
sg9
F0.055
ssg12
(dp56
g7
F0.0158422243776269
sg8
F49.0
sg9
F0.245
ssS'3'
p57
(dp58
g7
F0.0006466214031684449
sg8
F2.0
sg9
F0.01
ssg30
(dp59
g7
F0.0006466214031684449
sg8
F2.0
sg9
F0.01
ssg14
(dp60
g7
F0.006466214031684449
sg8
F20.0
sg9
F0.1
ssg18
(dp61
g7
F0.007759456838021339
sg8
F24.0
sg9
F0.12
sssg20
I0
sg21
I200
sg22
I108
sg23
I3093
ssS'3DPrintGirl'
p62
(dp63
g3
(dp64
g5
(dp65
g7
F0.059923664122137406
sg8
F157.0
sg9
F0.785
ssg10
(dp66
g7
F0.0022900763358778627
sg8
F6.0
sg9
F0.03
ssg12
(dp67
g7
F0.031297709923664124
sg8
F82.0
sg9
F0.41
ssg30
(dp68
g7
F0.0011450381679389313
sg8
F3.0
sg9
F0.015
ssg14
(dp69
g7
F0.007251908396946565
sg8
F19.0
sg9
F0.095
ssg16
(dp70
g7
F0.0011450381679389313
sg8
F3.0
sg9
F0.015
ssg34
(dp71
g7
F0.0022900763358778627
sg8
F6.0
sg9
F0.03
ssg18
(dp72
g7
F0.014122137404580152
sg8
F37.0
sg9
F0.185
ssg37
(dp73
g7
F0.0003816793893129771
sg8
F1.0
sg9
F0.005
sssg20
I0
sg21
I200
sg22
I157
sg23
I2620
ssS'dangerousproto'
p74
(dp75
g3
(dp76
g10
(dp77
g7
F0.029054054054054056
sg8
F43.0
sg9
F0.24293785310734464
ssg12
(dp78
g7
F0.043243243243243246
sg8
F64.0
sg9
F0.3615819209039548
ssg5
(dp79
g7
F0.08243243243243244
sg8
F122.0
sg9
F0.6892655367231638
ssg14
(dp80
g7
F0.004054054054054054
sg8
F6.0
sg9
F0.03389830508474576
ssg18
(dp81
g7
F0.006081081081081081
sg8
F9.0
sg9
F0.05084745762711865
sssg20
I0
sg21
I177
sg22
I122
sg23
I1480
ssS'pimoroni'
p82
(dp83
g3
(dp84
g5
(dp85
g7
F0.026113157013726147
sg8
F78.0
sg9
F0.40625
ssg10
(dp86
g7
F0.003013056578506863
sg8
F9.0
sg9
F0.046875
ssg12
(dp87
g7
F0.012052226314027453
sg8
F36.0
sg9
F0.1875
ssg57
(dp88
g7
F0.00033478406427854036
sg8
F1.0
sg9
F0.005208333333333333
ssg30
(dp89
g7
F0.0006695681285570807
sg8
F2.0
sg9
F0.010416666666666666
ssg14
(dp90
g7
F0.0033478406427854034
sg8
F10.0
sg9
F0.052083333333333336
ssg18
(dp91
g7
F0.006026113157013726
sg8
F18.0
sg9
F0.09375
ssg37
(dp92
g7
F0.0006695681285570807
sg8
F2.0
sg9
F0.010416666666666666
sssg20
I0
sg21
I192
sg22
I78
sg23
I2987
ssS'makerfaire'
p93
(dp94
g3
(dp95
g5
(dp96
g7
F0.07844474761255116
sg8
F230.0
sg9
F1.1855670103092784
ssg10
(dp97
g7
F0.002728512960436562
sg8
F8.0
sg9
F0.041237113402061855
ssg12
(dp98
g7
F0.03274215552523874
sg8
F96.0
sg9
F0.4948453608247423
ssg57
(dp99
g7
F0.0010231923601637107
sg8
F3.0
sg9
F0.015463917525773196
ssg30
(dp100
g7
F0.002728512960436562
sg8
F8.0
sg9
F0.041237113402061855
ssg14
(dp101
g7
F0.018417462482946793
sg8
F54.0
sg9
F0.27835051546391754
ssg18
(dp102
g7
F0.020804911323328786
sg8
F61.0
sg9
F0.31443298969072164
sssg20
I0
sg21
I194
sg22
I230
sg23
I2932
ssS'shapeways'
p103
(dp104
g3
(dp105
g5
(dp106
g7
F0.06037735849056604
sg8
F176.0
sg9
F0.9025641025641026
ssg10
(dp107
g7
F0.002058319039451115
sg8
F6.0
sg9
F0.03076923076923077
ssg12
(dp108
g7
F0.03156089193825043
sg8
F92.0
sg9
F0.4717948717948718
ssg57
(dp109
g7
F0.003430531732418525
sg8
F10.0
sg9
F0.05128205128205128
ssg30
(dp110
g7
F0.003430531732418525
sg8
F10.0
sg9
F0.05128205128205128
ssg14
(dp111
g7
F0.007890222984562607
sg8
F23.0
sg9
F0.11794871794871795
ssg16
(dp112
g7
F0.0017152658662092624
sg8
F5.0
sg9
F0.02564102564102564
ssg34
(dp113
g7
F0.0006861063464837049
sg8
F2.0
sg9
F0.010256410256410256
ssg18
(dp114
g7
F0.009262435677530018
sg8
F27.0
sg9
F0.13846153846153847
ssg37
(dp115
g7
F0.00034305317324185246
sg8
F1.0
sg9
F0.005128205128205128
sssg20
I0
sg21
I195
sg22
I176
sg23
I2915
ssS'3dprintindustry'
p116
(dp117
g3
(dp118
g5
(dp119
g7
F0.04266923323708694
sg8
F133.0
sg9
F0.6963350785340314
ssg10
(dp120
g7
F0.0028873917228103944
sg8
F9.0
sg9
F0.04712041884816754
ssg12
(dp121
g7
F0.014757779916586462
sg8
F46.0
sg9
F0.24083769633507854
ssg14
(dp122
g7
F0.005133140840551813
sg8
F16.0
sg9
F0.08376963350785341
ssg34
(dp123
g7
F0.011870388193776067
sg8
F37.0
sg9
F0.193717277486911
ssg18
(dp124
g7
F0.008020532563362208
sg8
F25.0
sg9
F0.13089005235602094
sssg20
I0
sg21
I191
sg22
I133
sg23
I3117
ssS'3dprinting3d'
p125
(dp126
g3
(dp127
g5
(dp128
g7
F0.047602004294917684
sg8
F133.0
sg9
F0.6683417085427136
ssg10
(dp129
g7
F0.0010737294201861132
sg8
F3.0
sg9
F0.01507537688442211
ssg12
(dp130
g7
F0.01968503937007874
sg8
F55.0
sg9
F0.27638190954773867
ssg30
(dp131
g7
F0.00035790980672870435
sg8
F1.0
sg9
F0.005025125628140704
ssg14
(dp132
g7
F0.00894774516821761
sg8
F25.0
sg9
F0.12562814070351758
ssg16
(dp133
g7
F0.0007158196134574087
sg8
F2.0
sg9
F0.010050251256281407
ssg34
(dp134
g7
F0.006442376521116679
sg8
F18.0
sg9
F0.09045226130653267
ssg18
(dp135
g7
F0.010379384395132427
sg8
F29.0
sg9
F0.1457286432160804
sssg20
I0
sg21
I199
sg22
I133
sg23
I2794
ssS'ModMyPi'
p136
(dp137
g3
(dp138
g5
(dp139
g7
F0.023002797637550514
sg8
F74.0
sg9
F0.37185929648241206
ssg10
(dp140
g7
F0.002175940317065589
sg8
F7.0
sg9
F0.035175879396984924
ssg12
(dp141
g7
F0.010568852968604289
sg8
F34.0
sg9
F0.1708542713567839
ssg57
(dp142
g7
F0.00031084861672365556
sg8
F1.0
sg9
F0.005025125628140704
ssg30
(dp143
g7
F0.0006216972334473111
sg8
F2.0
sg9
F0.010050251256281407
ssg14
(dp144
g7
F0.0034193347839602114
sg8
F11.0
sg9
F0.05527638190954774
ssg34
(dp145
g7
F0.00031084861672365556
sg8
F1.0
sg9
F0.005025125628140704
ssg18
(dp146
g7
F0.0052844264843021444
sg8
F17.0
sg9
F0.08542713567839195
ssg37
(dp147
g7
F0.00031084861672365556
sg8
F1.0
sg9
F0.005025125628140704
sssg20
I0
sg21
I199
sg22
I74
sg23
I3217
ssS'hackaday'
p148
(dp149
g3
(dp150
g5
(dp151
g7
F0.05154639175257732
sg8
F120.0
sg9
F0.6282722513089005
ssg10
(dp152
g7
F0.003865979381443299
sg8
F9.0
sg9
F0.04712041884816754
ssg12
(dp153
g7
F0.02534364261168385
sg8
F59.0
sg9
F0.3089005235602094
ssg57
(dp154
g7
F0.000859106529209622
sg8
F2.0
sg9
F0.010471204188481676
ssg30
(dp155
g7
F0.002147766323024055
sg8
F5.0
sg9
F0.02617801047120419
ssg14
(dp156
g7
F0.007302405498281787
sg8
F17.0
sg9
F0.08900523560209424
ssg34
(dp157
g7
F0.002147766323024055
sg8
F5.0
sg9
F0.02617801047120419
ssg18
(dp158
g7
F0.009879725085910653
sg8
F23.0
sg9
F0.12041884816753927
sssg20
I0
sg21
I191
sg22
I120
sg23
I2328
ssVBarackObama
p159
(dp160
S'source'
p161
I1
sS'ntweets'
p162
I198
sS'nwords'
p163
I3364
sS'nmappings'
p164
I151
sS'scores'
p165
(dp166
S'all'
p167
(dp168
S'per_word'
p169
F0.04488703923900119
sS'raw'
p170
F151.0
sS'per_tweet'
p171
F0.7626262626262627
ssS'1'
p172
(dp173
g169
F0.0032699167657550534
sg170
F11.0
sg171
F0.05555555555555555
ssS'0'
p174
(dp175
g169
F0.021105826397146255
sg170
F71.0
sg171
F0.35858585858585856
ssS'3'
p176
(dp177
g169
F0.0008917954815695601
sg170
F3.0
sg171
F0.015151515151515152
ssS'2'
p178
(dp179
g169
F0.0017835909631391202
sg170
F6.0
sg171
F0.030303030303030304
ssS'5'
p180
(dp181
g169
F0.00267538644470868
sg170
F9.0
sg171
F0.045454545454545456
ssS'4'
p182
(dp183
g169
F0.00535077288941736
sg170
F18.0
sg171
F0.09090909090909091
ssS'7'
p184
(dp185
g169
F0.00029726516052318666
sg170
F1.0
sg171
F0.005050505050505051
ssS'6'
p186
(dp187
g169
F0.008620689655172414
sg170
F29.0
sg171
F0.14646464646464646
ssS'8'
p188
(dp189
g169
F0.0008917954815695601
sg170
F3.0
sg171
F0.015151515151515152
ssssS'MicrochipMakes'
p190
(dp191
g3
(dp192
g5
(dp193
g7
F0.055165496489468405
sg8
F165.0
sg9
F0.8333333333333334
ssg10
(dp194
g7
F0.0056837178201270475
sg8
F17.0
sg9
F0.08585858585858586
ssg12
(dp195
g7
F0.024406552992310263
sg8
F73.0
sg9
F0.3686868686868687
ssg57
(dp196
g7
F0.00033433634236041456
sg8
F1.0
sg9
F0.005050505050505051
ssg30
(dp197
g7
F0.00033433634236041456
sg8
F1.0
sg9
F0.005050505050505051
ssg14
(dp198
g7
F0.01170177198261451
sg8
F35.0
sg9
F0.17676767676767677
ssg16
(dp199
g7
F0.0006686726847208291
sg8
F2.0
sg9
F0.010101010101010102
ssg18
(dp200
g7
F0.012036108324974924
sg8
F36.0
sg9
F0.18181818181818182
sssg20
I0
sg21
I198
sg22
I165
sg23
I2991
ssS'adafruit'
p201
(dp202
g3
(dp203
g5
(dp204
g7
F0.03398058252427184
sg8
F77.0
sg9
F0.43258426966292135
ssg10
(dp205
g7
F0.00353045013239188
sg8
F8.0
sg9
F0.0449438202247191
ssg12
(dp206
g7
F0.01588702559576346
sg8
F36.0
sg9
F0.20224719101123595
ssg57
(dp207
g7
F0.000441306266548985
sg8
F1.0
sg9
F0.0056179775280898875
ssg30
(dp208
g7
F0.00088261253309797
sg8
F2.0
sg9
F0.011235955056179775
ssg14
(dp209
g7
F0.00617828773168579
sg8
F14.0
sg9
F0.07865168539325842
ssg18
(dp210
g7
F0.00706090026478376
sg8
F16.0
sg9
F0.0898876404494382
sssg20
I0
sg21
I178
sg22
I77
sg23
I2266
ssS'3dersorg'
p211
(dp212
g3
(dp213
g5
(dp214
g7
F0.06363927086664535
sg8
F199.0
sg9
F1.0153061224489797
ssg10
(dp215
g7
F0.003837543971858011
sg8
F12.0
sg9
F0.061224489795918366
ssg12
(dp216
g7
F0.028781579788935082
sg8
F90.0
sg9
F0.45918367346938777
ssg30
(dp217
g7
F0.0015989766549408379
sg8
F5.0
sg9
F0.025510204081632654
ssg14
(dp218
g7
F0.012472017908538535
sg8
F39.0
sg9
F0.1989795918367347
ssg16
(dp219
g7
F0.0006395906619763352
sg8
F2.0
sg9
F0.01020408163265306
ssg34
(dp220
g7
F0.002878157978893508
sg8
F9.0
sg9
F0.04591836734693878
ssg18
(dp221
g7
F0.013431403901503039
sg8
F42.0
sg9
F0.21428571428571427
sssg20
I0
sg21
I196
sg22
I199
sg23
I3127
ssS'3dprintingcom'
p222
(dp223
g3
(dp224
g5
(dp225
g7
F0.04885270170244264
sg8
F132.0
sg9
F0.676923076923077
ssg10
(dp226
g7
F0.0029607698001480384
sg8
F8.0
sg9
F0.041025641025641026
ssg12
(dp227
g7
F0.0229459659511473
sg8
F62.0
sg9
F0.31794871794871793
ssg14
(dp228
g7
F0.006661732050333087
sg8
F18.0
sg9
F0.09230769230769231
ssg16
(dp229
g7
F0.0007401924500370096
sg8
F2.0
sg9
F0.010256410256410256
ssg34
(dp230
g7
F0.0029607698001480384
sg8
F8.0
sg9
F0.041025641025641026
ssg18
(dp231
g7
F0.012583271650629163
sg8
F34.0
sg9
F0.17435897435897435
sssg20
I0
sg21
I195
sg22
I132
sg23
I2702
ssS'htpc_guides'
p232
(dp233
g3
(dp234
g10
(dp235
g7
F0.004750593824228029
sg8
F8.0
sg9
F0.050314465408805034
ssg12
(dp236
g7
F0.019596199524940617
sg8
F33.0
sg9
F0.20754716981132076
ssg5
(dp237
g7
F0.040973871733966744
sg8
F69.0
sg9
F0.4339622641509434
ssg14
(dp238
g7
F0.012470308788598575
sg8
F21.0
sg9
F0.1320754716981132
ssg18
(dp239
g7
F0.004156769596199525
sg8
F7.0
sg9
F0.0440251572327044
sssg20
I0
sg21
I159
sg22
I69
sg23
I1684
ssS'ColorFabb'
p240
(dp241
g3
(dp242
g5
(dp243
g7
F0.033400133600534405
sg8
F100.0
sg9
F0.5494505494505495
ssg10
(dp244
g7
F0.0013360053440213762
sg8
F4.0
sg9
F0.02197802197802198
ssg12
(dp245
g7
F0.017702070808283232
sg8
F53.0
sg9
F0.29120879120879123
ssg14
(dp246
g7
F0.005344021376085505
sg8
F16.0
sg9
F0.08791208791208792
ssg16
(dp247
g7
F0.0006680026720106881
sg8
F2.0
sg9
F0.01098901098901099
ssg18
(dp248
g7
F0.007348029392117568
sg8
F22.0
sg9
F0.12087912087912088
ssg37
(dp249
g7
F0.001002004008016032
sg8
F3.0
sg9
F0.016483516483516484
sssg20
I0
sg21
I182
sg22
I100
sg23
I2994
ssS'xKaliSec'
p250
(dp251
g3
(dp252
g5
(dp253
g7
F0.06345634563456345
sg8
F141.0
sg9
F0.7704918032786885
ssg10
(dp254
g7
F0.004500450045004501
sg8
F10.0
sg9
F0.0546448087431694
ssg12
(dp255
g7
F0.0279027902790279
sg8
F62.0
sg9
F0.33879781420765026
ssg14
(dp256
g7
F0.01395139513951395
sg8
F31.0
sg9
F0.16939890710382513
ssg34
(dp257
g7
F0.0013501350135013501
sg8
F3.0
sg9
F0.01639344262295082
ssg18
(dp258
g7
F0.0153015301530153
sg8
F34.0
sg9
F0.18579234972677597
ssg37
(dp259
g7
F0.00045004500450045
sg8
F1.0
sg9
F0.00546448087431694
sssg20
I0
sg21
I183
sg22
I141
sg23
I2222
ssS'make'
p260
(dp261
g3
(dp262
g5
(dp263
g7
F0.0984759671746776
sg8
F336.0
sg9
F1.7142857142857142
ssg10
(dp264
g7
F0.003223915592028136
sg8
F11.0
sg9
F0.05612244897959184
ssg12
(dp265
g7
F0.04015240328253224
sg8
F137.0
sg9
F0.6989795918367347
ssg57
(dp266
g7
F0.0011723329425556857
sg8
F4.0
sg9
F0.02040816326530612
ssg30
(dp267
g7
F0.0023446658851113715
sg8
F8.0
sg9
F0.04081632653061224
ssg14
(dp268
g7
F0.023153575615474795
sg8
F79.0
sg9
F0.4030612244897959
ssg16
(dp269
g7
F0.0005861664712778429
sg8
F2.0
sg9
F0.01020408163265306
ssg34
(dp270
g7
F0.0005861664712778429
sg8
F2.0
sg9
F0.01020408163265306
ssg18
(dp271
g7
F0.026670574443141852
sg8
F91.0
sg9
F0.4642857142857143
ssg37
(dp272
g7
F0.0005861664712778429
sg8
F2.0
sg9
F0.01020408163265306
sssg20
I0
sg21
I196
sg22
I336
sg23
I3412
ssS'Pi_Borg'
p273
(dp274
g3
(dp275
g5
(dp276
g7
F0.013140604467805518
sg8
F40.0
sg9
F0.20408163265306123
ssg10
(dp277
g7
F0.000657030223390276
sg8
F2.0
sg9
F0.01020408163265306
ssg12
(dp278
g7
F0.006898817345597897
sg8
F21.0
sg9
F0.10714285714285714
ssg30
(dp279
g7
F0.000328515111695138
sg8
F1.0
sg9
F0.00510204081632653
ssg14
(dp280
g7
F0.0022996057818659658
sg8
F7.0
sg9
F0.03571428571428571
ssg18
(dp281
g7
F0.002956636005256242
sg8
F9.0
sg9
F0.04591836734693878
sssg20
I0
sg21
I196
sg22
I40
sg23
I3044
ssS'instructables'
p282
(dp283
g3
(dp284
g12
(dp285
g7
F0.04055032585083273
sg8
F56.0
sg9
F0.3111111111111111
ssg5
(dp286
g7
F0.08110065170166546
sg8
F112.0
sg9
F0.6222222222222222
ssg14
(dp287
g7
F0.015930485155684286
sg8
F22.0
sg9
F0.12222222222222222
ssg16
(dp288
g7
F0.005068790731354091
sg8
F7.0
sg9
F0.03888888888888889
ssg18
(dp289
g7
F0.01955104996379435
sg8
F27.0
sg9
F0.15
sssg20
I0
sg21
I180
sg22
I112
sg23
I1381
ssS'linuxfoundation'
p290
(dp291
g3
(dp292
g5
(dp293
g7
F0.06960271019402525
sg8
F226.0
sg9
F1.1414141414141414
ssg10
(dp294
g7
F0.013858946720049276
sg8
F45.0
sg9
F0.22727272727272727
ssg12
(dp295
g7
F0.036957191253464736
sg8
F120.0
sg9
F0.6060606060606061
ssg57
(dp296
g7
F0.0033877425315676007
sg8
F11.0
sg9
F0.05555555555555555
ssg30
(dp297
g7
F0.004311672312904219
sg8
F14.0
sg9
F0.0707070707070707
ssg14
(dp298
g7
F0.004003695719125347
sg8
F13.0
sg9
F0.06565656565656566
ssg16
(dp299
g7
F0.0012319063751154912
sg8
F4.0
sg9
F0.020202020202020204
ssg18
(dp300
g7
F0.004927625500461965
sg8
F16.0
sg9
F0.08080808080808081
ssg37
(dp301
g7
F0.0009239297813366184
sg8
F3.0
sg9
F0.015151515151515152
sssg20
I0
sg21
I198
sg22
I226
sg23
I3247
ssVBokehPlots
p302
(dp303
S'source'
p304
I1
sS'ntweets'
p305
I48
sS'nwords'
p306
I816
sS'nmappings'
p307
I32
sS'scores'
p308
(dp309
S'all'
p310
(dp311
S'per_word'
p312
F0.0392156862745098
sS'raw'
p313
F32.0
sS'per_tweet'
p314
F0.6666666666666666
ssS'1'
p315
(dp316
g312
F0.0024509803921568627
sg313
F2.0
sg314
F0.041666666666666664
ssS'0'
p317
(dp318
g312
F0.01715686274509804
sg313
F14.0
sg314
F0.2916666666666667
ssS'2'
p319
(dp320
g312
F0.0024509803921568627
sg313
F2.0
sg314
F0.041666666666666664
ssS'5'
p321
(dp322
g312
F0.007352941176470588
sg313
F6.0
sg314
F0.125
ssS'6'
p323
(dp324
g312
F0.00980392156862745
sg313
F8.0
sg314
F0.16666666666666666
ssssVbokeh
p325
(dp326
S'source'
p327
I1
sS'ntweets'
p328
I5
sS'nwords'
p329
I54
sS'nmappings'
p330
I0
sS'scores'
p331
(dp332
S'all'
p333
(dp334
S'per_word'
p335
F0.0
sS'raw'
p336
F0.0
sS'per_tweet'
p337
F0.0
ssssVBernieSanders
p338
(dp339
S'scores'
p340
(dp341
S'all'
p342
(dp343
S'per_word'
p344
F0.044444444444444446
sS'raw'
p345
F180.0
sS'per_tweet'
p346
F0.9
ssS'1'
p347
(dp348
g344
F0.0014814814814814814
sg345
F6.0
sg346
F0.03
ssS'0'
p349
(dp350
g344
F0.018765432098765432
sg345
F76.0
sg346
F0.38
ssS'3'
p351
(dp352
g344
F0.0034567901234567903
sg345
F14.0
sg346
F0.07
ssS'2'
p353
(dp354
g344
F0.002962962962962963
sg345
F12.0
sg346
F0.06
ssS'5'
p355
(dp356
g344
F0.004197530864197531
sg345
F17.0
sg346
F0.085
ssS'4'
p357
(dp358
g344
F0.0024691358024691358
sg345
F10.0
sg346
F0.05
ssS'7'
p359
(dp360
g344
F0.0009876543209876543
sg345
F4.0
sg346
F0.02
ssS'6'
p361
(dp362
g344
F0.007160493827160494
sg345
F29.0
sg346
F0.145
ssS'8'
p363
(dp364
g344
F0.002962962962962963
sg345
F12.0
sg346
F0.06
sssS'source'
p365
I1
sS'ntweets'
p366
I200
sS'nmappings'
p367
I180
sS'nwords'
p368
I4050
ssS'freetronics'
p369
(dp370
g3
(dp371
g5
(dp372
g7
F0.07125700560448359
sg8
F178.0
sg9
F0.967391304347826
ssg10
(dp373
g7
F0.02802241793434748
sg8
F70.0
sg9
F0.3804347826086957
ssg12
(dp374
g7
F0.03763010408326661
sg8
F94.0
sg9
F0.5108695652173914
ssg14
(dp375
g7
F0.0016012810248198558
sg8
F4.0
sg9
F0.021739130434782608
ssg16
(dp376
g7
F0.0012009607686148918
sg8
F3.0
sg9
F0.016304347826086956
ssg34
(dp377
g7
F0.0008006405124099279
sg8
F2.0
sg9
F0.010869565217391304
ssg18
(dp378
g7
F0.0020016012810248197
sg8
F5.0
sg9
F0.02717391304347826
sssg20
I0
sg21
I184
sg22
I178
sg23
I2498
ssS'3DPrintingIt'
p379
(dp380
g3
(dp381
g5
(dp382
g7
F0.0600988969189806
sg8
F158.0
sg9
F0.79
ssg10
(dp383
g7
F0.002282236591860023
sg8
F6.0
sg9
F0.03
ssg12
(dp384
g7
F0.031190566755420313
sg8
F82.0
sg9
F0.41
ssg30
(dp385
g7
F0.0011411182959300114
sg8
F3.0
sg9
F0.015
ssg14
(dp386
g7
F0.007607455306200076
sg8
F20.0
sg9
F0.1
ssg16
(dp387
g7
F0.0011411182959300114
sg8
F3.0
sg9
F0.015
ssg34
(dp388
g7
F0.002282236591860023
sg8
F6.0
sg9
F0.03
ssg18
(dp389
g7
F0.01407379231647014
sg8
F37.0
sg9
F0.185
ssg37
(dp390
g7
F0.0003803727653100038
sg8
F1.0
sg9
F0.005
sssg20
I0
sg21
I200
sg22
I158
sg23
I2629
ssS'androidcentral'
p391
(dp392
g3
(dp393
g5
(dp394
g7
F0.028499843407453804
sg8
F91.0
sg9
F0.455
ssg10
(dp395
g7
F0.0034450360162856246
sg8
F11.0
sg9
F0.055
ssg12
(dp396
g7
F0.013153773880363295
sg8
F42.0
sg9
F0.21
ssg30
(dp397
g7
F0.0009395552771688068
sg8
F3.0
sg9
F0.015
ssg14
(dp398
g7
F0.005324146570623238
sg8
F17.0
sg9
F0.085
ssg34
(dp399
g7
F0.0006263701847792045
sg8
F2.0
sg9
F0.01
ssg18
(dp400
g7
F0.004697776385844034
sg8
F15.0
sg9
F0.075
ssg37
(dp401
g7
F0.00031318509238960227
sg8
F1.0
sg9
F0.005
sssg20
I0
sg21
I200
sg22
I91
sg23
I3193
ssS'Ultimaker'
p402
(dp403
g3
(dp404
g5
(dp405
g7
F0.08168456755228942
sg8
F289.0
sg9
F1.4522613065326633
ssg10
(dp406
g7
F0.00395703787450537
sg8
F14.0
sg9
F0.07035175879396985
ssg12
(dp407
g7
F0.03900508762012436
sg8
F138.0
sg9
F0.6934673366834171
ssg57
(dp408
g7
F0.0011305822498586771
sg8
F4.0
sg9
F0.020100502512562814
ssg30
(dp409
g7
F0.0033917467495760316
sg8
F12.0
sg9
F0.06030150753768844
ssg14
(dp410
g7
F0.014697569248162803
sg8
F52.0
sg9
F0.2613065326633166
ssg16
(dp411
g7
F0.0014132278123233466
sg8
F5.0
sg9
F0.02512562814070352
ssg34
(dp412
g7
F0.0005652911249293386
sg8
F2.0
sg9
F0.010050251256281407
ssg18
(dp413
g7
F0.01667608818541549
sg8
F59.0
sg9
F0.2964824120603015
ssg37
(dp414
g7
F0.0008479366873940079
sg8
F3.0
sg9
F0.01507537688442211
sssg20
I0
sg21
I199
sg22
I289
sg23
I3538
ssS'3dprinting'
p415
(dp416
g3
(dp417
g5
(dp418
g7
F0.04213009774182676
sg8
F125.0
sg9
F0.7102272727272727
ssg10
(dp419
g7
F0.0023592854735422987
sg8
F7.0
sg9
F0.03977272727272727
ssg12
(dp420
g7
F0.01954836535220762
sg8
F58.0
sg9
F0.32954545454545453
ssg30
(dp421
g7
F0.0006740815638692282
sg8
F2.0
sg9
F0.011363636363636364
ssg14
(dp422
g7
F0.006740815638692282
sg8
F20.0
sg9
F0.11363636363636363
ssg16
(dp423
g7
F0.0006740815638692282
sg8
F2.0
sg9
F0.011363636363636364
ssg34
(dp424
g7
F0.0020222446916076846
sg8
F6.0
sg9
F0.03409090909090909
ssg18
(dp425
g7
F0.009437141894169195
sg8
F28.0
sg9
F0.1590909090909091
ssg37
(dp426
g7
F0.0006740815638692282
sg8
F2.0
sg9
F0.011363636363636364
sssg20
I0
sg21
I176
sg22
I125
sg23
I2967
ssS'3DPrintBoard'
p427
(dp428
g3
(dp429
g5
(dp430
g7
F0.060038240917782024
sg8
F157.0
sg9
F0.785
ssg10
(dp431
g7
F0.002294455066921606
sg8
F6.0
sg9
F0.03
ssg12
(dp432
g7
F0.03135755258126195
sg8
F82.0
sg9
F0.41
ssg30
(dp433
g7
F0.001147227533460803
sg8
F3.0
sg9
F0.015
ssg14
(dp434
g7
F0.007265774378585086
sg8
F19.0
sg9
F0.095
ssg16
(dp435
g7
F0.001147227533460803
sg8
F3.0
sg9
F0.015
ssg34
(dp436
g7
F0.002294455066921606
sg8
F6.0
sg9
F0.03
ssg18
(dp437
g7
F0.014149139579349905
sg8
F37.0
sg9
F0.185
ssg37
(dp438
g7
F0.0003824091778202677
sg8
F1.0
sg9
F0.005
sssg20
I0
sg21
I200
sg22
I157
sg23
I2615
ssS'planetarduino'
p439
(dp440
g3
(dp441
g10
(dp442
g7
F0.006666666666666667
sg8
F11.0
sg9
F0.0658682634730539
ssg12
(dp443
g7
F0.020606060606060607
sg8
F34.0
sg9
F0.20359281437125748
ssg5
(dp444
g7
F0.04787878787878788
sg8
F79.0
sg9
F0.47305389221556887
ssg14
(dp445
g7
F0.010303030303030303
sg8
F17.0
sg9
F0.10179640718562874
ssg18
(dp446
g7
F0.010303030303030303
sg8
F17.0
sg9
F0.10179640718562874
sssg20
I0
sg21
I167
sg22
I79
sg23
I1650
ssS'Raspberry_Pi'
p447
(dp448
g3
(dp449
g5
(dp450
g7
F0.04191419141914191
sg8
F127.0
sg9
F0.6902173913043478
ssg10
(dp451
g7
F0.0036303630363036304
sg8
F11.0
sg9
F0.059782608695652176
ssg12
(dp452
g7
F0.019471947194719473
sg8
F59.0
sg9
F0.32065217391304346
ssg57
(dp453
g7
F0.0009900990099009901
sg8
F3.0
sg9
F0.016304347826086956
ssg30
(dp454
g7
F0.0023102310231023103
sg8
F7.0
sg9
F0.03804347826086957
ssg14
(dp455
g7
F0.006600660066006601
sg8
F20.0
sg9
F0.10869565217391304
ssg16
(dp456
g7
F0.0009900990099009901
sg8
F3.0
sg9
F0.016304347826086956
ssg34
(dp457
g7
F0.00033003300330033004
sg8
F1.0
sg9
F0.005434782608695652
ssg18
(dp458
g7
F0.007260726072607261
sg8
F22.0
sg9
F0.11956521739130435
ssg37
(dp459
g7
F0.00033003300330033004
sg8
F1.0
sg9
F0.005434782608695652
sssg20
I0
sg21
I184
sg22
I127
sg23
I3030
ssS'RSComponents'
p460
(dp461
g3
(dp462
g5
(dp463
g7
F0.053465346534653464
sg8
F162.0
sg9
F0.8140703517587939
ssg10
(dp464
g7
F0.0026402640264026403
sg8
F8.0
sg9
F0.04020100502512563
ssg12
(dp465
g7
F0.02574257425742574
sg8
F78.0
sg9
F0.39195979899497485
ssg57
(dp466
g7
F0.0013201320132013201
sg8
F4.0
sg9
F0.020100502512562814
ssg30
(dp467
g7
F0.0016501650165016502
sg8
F5.0
sg9
F0.02512562814070352
ssg14
(dp468
g7
F0.006930693069306931
sg8
F21.0
sg9
F0.10552763819095477
ssg16
(dp469
g7
F0.0013201320132013201
sg8
F4.0
sg9
F0.020100502512562814
ssg34
(dp470
g7
F0.0013201320132013201
sg8
F4.0
sg9
F0.020100502512562814
ssg18
(dp471
g7
F0.01221122112211221
sg8
F37.0
sg9
F0.18592964824120603
ssg37
(dp472
g7
F0.00033003300330033004
sg8
F1.0
sg9
F0.005025125628140704
sssg20
I0
sg21
I199
sg22
I162
sg23
I3030
ssS'TheMagP1'
p473
(dp474
g3
(dp475
g5
(dp476
g7
F0.03536544291007073
sg8
F105.0
sg9
F0.5497382198952879
ssg10
(dp477
g7
F0.004715392388009431
sg8
F14.0
sg9
F0.07329842931937172
ssg12
(dp478
g7
F0.017177500842034354
sg8
F51.0
sg9
F0.2670157068062827
ssg30
(dp479
g7
F0.0006736274840013472
sg8
F2.0
sg9
F0.010471204188481676
ssg14
(dp480
g7
F0.0057258336140114515
sg8
F17.0
sg9
F0.08900523560209424
ssg16
(dp481
g7
F0.0003368137420006736
sg8
F1.0
sg9
F0.005235602094240838
ssg18
(dp482
g7
F0.006399461098012799
sg8
F19.0
sg9
F0.09947643979057591
ssg37
(dp483
g7
F0.0003368137420006736
sg8
F1.0
sg9
F0.005235602094240838
sssg20
I0
sg21
I191
sg22
I105
sg23
I2969
ssVzalamerabnb
p484
(dp485
S'scores'
p486
(dp487
S'0'
p488
(dp489
S'per_word'
p490
F0.02197802197802198
sS'raw'
p491
F2.0
sS'per_tweet'
p492
F0.2857142857142857
ssS'all'
p493
(dp494
g490
F0.04395604395604396
sg491
F4.0
sg492
F0.5714285714285714
ssS'4'
p495
(dp496
g490
F0.02197802197802198
sg491
F2.0
sg492
F0.2857142857142857
sssS'source'
p497
I1
sS'ntweets'
p498
I7
sS'nmappings'
p499
I4
sS'nwords'
p500
I91
ssS'mbanzi'
p501
(dp502
g3
(dp503
g5
(dp504
g7
F0.05669902912621359
sg8
F146.0
sg9
F0.8488372093023255
ssg10
(dp505
g7
F0.007378640776699029
sg8
F19.0
sg9
F0.11046511627906977
ssg12
(dp506
g7
F0.02640776699029126
sg8
F68.0
sg9
F0.3953488372093023
ssg57
(dp507
g7
F0.0011650485436893205
sg8
F3.0
sg9
F0.01744186046511628
ssg30
(dp508
g7
F0.0011650485436893205
sg8
F3.0
sg9
F0.01744186046511628
ssg14
(dp509
g7
F0.007378640776699029
sg8
F19.0
sg9
F0.11046511627906977
ssg16
(dp510
g7
F0.0003883495145631068
sg8
F1.0
sg9
F0.005813953488372093
ssg34
(dp511
g7
F0.002330097087378641
sg8
F6.0
sg9
F0.03488372093023256
ssg18
(dp512
g7
F0.010097087378640776
sg8
F26.0
sg9
F0.1511627906976744
ssg37
(dp513
g7
F0.0003883495145631068
sg8
F1.0
sg9
F0.005813953488372093
sssg20
I0
sg21
I172
sg22
I146
sg23
I2575
ssS'fabbaloo'
p514
(dp515
g3
(dp516
g5
(dp517
g7
F0.06363636363636363
sg8
F154.0
sg9
F0.7979274611398963
ssg10
(dp518
g7
F0.009917355371900827
sg8
F24.0
sg9
F0.12435233160621761
ssg12
(dp519
g7
F0.02727272727272727
sg8
F66.0
sg9
F0.34196891191709844
ssg14
(dp520
g7
F0.010330578512396695
sg8
F25.0
sg9
F0.12953367875647667
ssg34
(dp521
g7
F0.004132231404958678
sg8
F10.0
sg9
F0.05181347150259067
ssg18
(dp522
g7
F0.01115702479338843
sg8
F27.0
sg9
F0.13989637305699482
ssg37
(dp523
g7
F0.0008264462809917355
sg8
F2.0
sg9
F0.010362694300518135
sssg20
I0
sg21
I193
sg22
I154
sg23
I2420
ssS'imaterialise'
p524
(dp525
g3
(dp526
g5
(dp527
g7
F0.05090006207324643
sg8
F164.0
sg9
F0.8282828282828283
ssg10
(dp528
g7
F0.002793296089385475
sg8
F9.0
sg9
F0.045454545454545456
ssg12
(dp529
g7
F0.027932960893854747
sg8
F90.0
sg9
F0.45454545454545453
ssg57
(dp530
g7
F0.00031036623215394165
sg8
F1.0
sg9
F0.005050505050505051
ssg30
(dp531
g7
F0.0006207324643078833
sg8
F2.0
sg9
F0.010101010101010102
ssg14
(dp532
g7
F0.008379888268156424
sg8
F27.0
sg9
F0.13636363636363635
ssg18
(dp533
g7
F0.010552451893234015
sg8
F34.0
sg9
F0.1717171717171717
ssg37
(dp534
g7
F0.00031036623215394165
sg8
F1.0
sg9
F0.005050505050505051
sssg20
I0
sg21
I198
sg22
I164
sg23
I3222
ssS'StackSocial'
p535
(dp536
g3
(dp537
g5
(dp538
g7
F0.050076335877862595
sg8
F164.0
sg9
F0.8282828282828283
ssg10
(dp539
g7
F0.00366412213740458
sg8
F12.0
sg9
F0.06060606060606061
ssg12
(dp540
g7
F0.023206106870229008
sg8
F76.0
sg9
F0.3838383838383838
ssg30
(dp541
g7
F0.000916030534351145
sg8
F3.0
sg9
F0.015151515151515152
ssg14
(dp542
g7
F0.010381679389312977
sg8
F34.0
sg9
F0.1717171717171717
ssg16
(dp543
g7
F0.000916030534351145
sg8
F3.0
sg9
F0.015151515151515152
ssg18
(dp544
g7
F0.01099236641221374
sg8
F36.0
sg9
F0.18181818181818182
sssg20
I0
sg21
I198
sg22
I164
sg23
I3275
ssS'TabTimes'
p545
(dp546
g3
(dp547
g5
(dp548
g7
F0.03901677721420211
sg8
F100.0
sg9
F0.5
ssg10
(dp549
g7
F0.0046820132657042525
sg8
F12.0
sg9
F0.06
ssg12
(dp550
g7
F0.015606710885680842
sg8
F40.0
sg9
F0.2
ssg30
(dp551
g7
F0.0003901677721420211
sg8
F1.0
sg9
F0.005
ssg14
(dp552
g7
F0.006632852126414358
sg8
F17.0
sg9
F0.085
ssg16
(dp553
g7
F0.0003901677721420211
sg8
F1.0
sg9
F0.005
ssg34
(dp554
g7
F0.0027311744049941474
sg8
F7.0
sg9
F0.035
ssg18
(dp555
g7
F0.008583690987124463
sg8
F22.0
sg9
F0.11
sssg20
I0
sg21
I200
sg22
I100
sg23
I2563
ssVhamzaz
p556
(dp557
g340
(dp558
g342
(dp559
g344
F0.026634382566585957
sg345
F11.0
sg346
F0.4230769230769231
ssg347
(dp560
g344
F0.002421307506053269
sg345
F1.0
sg346
F0.038461538461538464
ssg349
(dp561
g344
F0.012106537530266344
sg345
F5.0
sg346
F0.19230769230769232
ssg351
(dp562
g344
F0.002421307506053269
sg345
F1.0
sg346
F0.038461538461538464
ssg353
(dp563
g344
F0.002421307506053269
sg345
F1.0
sg346
F0.038461538461538464
ssg355
(dp564
g344
F0.002421307506053269
sg345
F1.0
sg346
F0.038461538461538464
ssg357
(dp565
g344
F0.002421307506053269
sg345
F1.0
sg346
F0.038461538461538464
ssg361
(dp566
g344
F0.002421307506053269
sg345
F1.0
sg346
F0.038461538461538464
sssg365
I1
sg366
I26
sg367
I11
sg368
I413
ssS'RealSexyCyborg'
p567
(dp568
g3
(dp569
g5
(dp570
g7
F0.03823799327011319
sg8
F125.0
sg9
F0.6648936170212766
ssg10
(dp571
g7
F0.0015295197308045274
sg8
F5.0
sg9
F0.026595744680851064
ssg12
(dp572
g7
F0.01621290914652799
sg8
F53.0
sg9
F0.28191489361702127
ssg57
(dp573
g7
F0.001223615784643622
sg8
F4.0
sg9
F0.02127659574468085
ssg30
(dp574
g7
F0.0015295197308045274
sg8
F5.0
sg9
F0.026595744680851064
ssg14
(dp575
g7
F0.007953502600183543
sg8
F26.0
sg9
F0.13829787234042554
ssg16
(dp576
g7
F0.0003059039461609055
sg8
F1.0
sg9
F0.005319148936170213
ssg34
(dp577
g7
F0.0003059039461609055
sg8
F1.0
sg9
F0.005319148936170213
ssg18
(dp578
g7
F0.009177118384827165
sg8
F30.0
sg9
F0.1595744680851064
sssg20
I0
sg21
I188
sg22
I125
sg23
I3269
ssS'RPiSpy'
p579
(dp580
g3
(dp581
g5
(dp582
g7
F0.03179696616102684
sg8
F109.0
sg9
F0.5505050505050505
ssg10
(dp583
g7
F0.004959159859976663
sg8
F17.0
sg9
F0.08585858585858586
ssg12
(dp584
g7
F0.014294049008168028
sg8
F49.0
sg9
F0.2474747474747475
ssg14
(dp585
g7
F0.005250875145857643
sg8
F18.0
sg9
F0.09090909090909091
ssg16
(dp586
g7
F0.0008751458576429405
sg8
F3.0
sg9
F0.015151515151515152
ssg18
(dp587
g7
F0.006126021003500583
sg8
F21.0
sg9
F0.10606060606060606
ssg37
(dp588
g7
F0.00029171528588098014
sg8
F1.0
sg9
F0.005050505050505051
sssg20
I0
sg21
I198
sg22
I109
sg23
I3428
ssS'arduinoblog'
p589
(dp590
g3
(dp591
g5
(dp592
g7
F0.12928827444956478
sg8
F505.0
sg9
F2.5376884422110555
ssg10
(dp593
g7
F0.010752688172043012
sg8
F42.0
sg9
F0.21105527638190955
ssg12
(dp594
g7
F0.05504352278545827
sg8
F215.0
sg9
F1.0804020100502512
ssg57
(dp595
g7
F0.002560163850486431
sg8
F10.0
sg9
F0.05025125628140704
ssg30
(dp596
g7
F0.005120327700972862
sg8
F20.0
sg9
F0.10050251256281408
ssg14
(dp597
g7
F0.023297491039426525
sg8
F91.0
sg9
F0.457286432160804
ssg34
(dp598
g7
F0.006144393241167435
sg8
F24.0
sg9
F0.12060301507537688
ssg18
(dp599
g7
F0.02636968766001024
sg8
F103.0
sg9
F0.5175879396984925
sssg20
I0
sg21
I199
sg22
I505
sg23
I3906
ssS'seeedstudio'
p600
(dp601
g3
(dp602
g5
(dp603
g7
F0.03981042654028436
sg8
F84.0
sg9
F0.4745762711864407
ssg10
(dp604
g7
F0.0009478672985781991
sg8
F2.0
sg9
F0.011299435028248588
ssg12
(dp605
g7
F0.02037914691943128
sg8
F43.0
sg9
F0.24293785310734464
ssg57
(dp606
g7
F0.00047393364928909954
sg8
F1.0
sg9
F0.005649717514124294
ssg30
(dp607
g7
F0.004739336492890996
sg8
F10.0
sg9
F0.05649717514124294
ssg14
(dp608
g7
F0.005213270142180095
sg8
F11.0
sg9
F0.062146892655367235
ssg16
(dp609
g7
F0.0014218009478672985
sg8
F3.0
sg9
F0.01694915254237288
ssg34
(dp610
g7
F0.00047393364928909954
sg8
F1.0
sg9
F0.005649717514124294
ssg18
(dp611
g7
F0.006161137440758294
sg8
F13.0
sg9
F0.07344632768361582
sssg20
I0
sg21
I177
sg22
I84
sg23
I2110
ssVbulentozel
p612
(dp613
S'scores'
p614
(dp615
S'1'
p616
(dp617
S'per_word'
p618
F0.0034965034965034965
sS'raw'
p619
F1.0
sS'per_tweet'
p620
F0.03333333333333333
ssS'0'
p621
(dp622
g618
F0.017482517482517484
sg619
F5.0
sg620
F0.16666666666666666
ssS'all'
p623
(dp624
g618
F0.024475524475524476
sg619
F7.0
sg620
F0.23333333333333334
ssS'6'
p625
(dp626
g618
F0.0034965034965034965
sg619
F1.0
sg620
F0.03333333333333333
sssS'source'
p627
I1
sS'ntweets'
p628
I30
sS'nmappings'
p629
I7
sS'nwords'
p630
I286
ssS'3DHubs'
p631
(dp632
g3
(dp633
g5
(dp634
g7
F0.039832285115303984
sg8
F133.0
sg9
F0.6820512820512821
ssg10
(dp635
g7
F0.0017969451931716084
sg8
F6.0
sg9
F0.03076923076923077
ssg12
(dp636
g7
F0.020365378855944895
sg8
F68.0
sg9
F0.3487179487179487
ssg57
(dp637
g7
F0.0002994908655286014
sg8
F1.0
sg9
F0.005128205128205128
ssg30
(dp638
g7
F0.002395926924228811
sg8
F8.0
sg9
F0.041025641025641026
ssg14
(dp639
g7
F0.004492362982929021
sg8
F15.0
sg9
F0.07692307692307693
ssg16
(dp640
g7
F0.0011979634621144056
sg8
F4.0
sg9
F0.020512820512820513
ssg34
(dp641
g7
F0.0008984725965858042
sg8
F3.0
sg9
F0.015384615384615385
ssg18
(dp642
g7
F0.008086253369272238
sg8
F27.0
sg9
F0.13846153846153847
ssg37
(dp643
g7
F0.0002994908655286014
sg8
F1.0
sg9
F0.005128205128205128
sssg20
I0
sg21
I195
sg22
I133
sg23
I3339
ssS'3DPrintingFans'
p644
(dp645
g3
(dp646
g5
(dp647
g7
F0.05909264201296226
sg8
F155.0
sg9
F0.775
ssg10
(dp648
g7
F0.002287457110179184
sg8
F6.0
sg9
F0.03
ssg12
(dp649
g7
F0.030880670987418986
sg8
F81.0
sg9
F0.405
ssg30
(dp650
g7
F0.001143728555089592
sg8
F3.0
sg9
F0.015
ssg14
(dp651
g7
F0.0072436141822340835
sg8
F19.0
sg9
F0.095
ssg16
(dp652
g7
F0.001143728555089592
sg8
F3.0
sg9
F0.015
ssg34
(dp653
g7
F0.002287457110179184
sg8
F6.0
sg9
F0.03
ssg18
(dp654
g7
F0.013724742661075104
sg8
F36.0
sg9
F0.18
ssg37
(dp655
g7
F0.0003812428516965307
sg8
F1.0
sg9
F0.005
sssg20
I0
sg21
I200
sg22
I155
sg23
I2623
ssS'element14'
p656
(dp657
g3
(dp658
g5
(dp659
g7
F0.06613594611145132
sg8
F216.0
sg9
F1.08
ssg10
(dp660
g7
F0.002449479485609308
sg8
F8.0
sg9
F0.04
ssg12
(dp661
g7
F0.030006123698714023
sg8
F98.0
sg9
F0.49
ssg57
(dp662
g7
F0.00612369871402327
sg8
F20.0
sg9
F0.1
ssg30
(dp663
g7
F0.00612369871402327
sg8
F20.0
sg9
F0.1
ssg14
(dp664
g7
F0.007348438456827924
sg8
F24.0
sg9
F0.12
ssg16
(dp665
g7
F0.000612369871402327
sg8
F2.0
sg9
F0.01
ssg34
(dp666
g7
F0.0003061849357011635
sg8
F1.0
sg9
F0.005
ssg18
(dp667
g7
F0.012859767299448868
sg8
F42.0
sg9
F0.21
ssg37
(dp668
g7
F0.0003061849357011635
sg8
F1.0
sg9
F0.005
sssg20
I0
sg21
I200
sg22
I216
sg23
I3266
ssS'sparkfun'
p669
(dp670
g3
(dp671
g5
(dp672
g7
F0.05177993527508091
sg8
F192.0
sg9
F0.9896907216494846
ssg10
(dp673
g7
F0.0037756202804746495
sg8
F14.0
sg9
F0.07216494845360824
ssg12
(dp674
g7
F0.02238403451995685
sg8
F83.0
sg9
F0.42783505154639173
ssg57
(dp675
g7
F0.0010787486515641855
sg8
F4.0
sg9
F0.020618556701030927
ssg30
(dp676
g7
F0.0016181229773462784
sg8
F6.0
sg9
F0.030927835051546393
ssg14
(dp677
g7
F0.009439050701186624
sg8
F35.0
sg9
F0.18041237113402062
ssg16
(dp678
g7
F0.0018878101402373248
sg8
F7.0
sg9
F0.03608247422680412
ssg34
(dp679
g7
F0.0005393743257820927
sg8
F2.0
sg9
F0.010309278350515464
ssg18
(dp680
g7
F0.010787486515641856
sg8
F40.0
sg9
F0.20618556701030927
ssg37
(dp681
g7
F0.00026968716289104636
sg8
F1.0
sg9
F0.005154639175257732
sssg20
I0
sg21
I194
sg22
I192
sg23
I3708
ssS'arduino'
p682
(dp683
g3
(dp684
g5
(dp685
g7
F0.06242948476871004
sg8
F166.0
sg9
F0.8645833333333334
ssg10
(dp686
g7
F0.0052651372696502444
sg8
F14.0
sg9
F0.07291666666666667
ssg12
(dp687
g7
F0.028958254983076345
sg8
F77.0
sg9
F0.4010416666666667
ssg57
(dp688
g7
F0.000376081233546446
sg8
F1.0
sg9
F0.005208333333333333
ssg30
(dp689
g7
F0.000376081233546446
sg8
F1.0
sg9
F0.005208333333333333
ssg14
(dp690
g7
F0.012034599473486273
sg8
F32.0
sg9
F0.16666666666666666
ssg16
(dp691
g7
F0.000752162467092892
sg8
F2.0
sg9
F0.010416666666666666
ssg18
(dp692
g7
F0.014667168108311396
sg8
F39.0
sg9
F0.203125
sssg20
I0
sg21
I192
sg22
I166
sg23
I2659
ssS'3d_printers'
p693
(dp694
g3
(dp695
g5
(dp696
g7
F0.044765342960288806
sg8
F124.0
sg9
F0.6326530612244898
ssg10
(dp697
g7
F0.00036101083032490973
sg8
F1.0
sg9
F0.00510204081632653
ssg12
(dp698
g7
F0.019855595667870037
sg8
F55.0
sg9
F0.28061224489795916
ssg57
(dp699
g7
F0.00036101083032490973
sg8
F1.0
sg9
F0.00510204081632653
ssg30
(dp700
g7
F0.0010830324909747292
sg8
F3.0
sg9
F0.015306122448979591
ssg14
(dp701
g7
F0.009025270758122744
sg8
F25.0
sg9
F0.12755102040816327
ssg34
(dp702
g7
F0.003249097472924188
sg8
F9.0
sg9
F0.04591836734693878
ssg18
(dp703
g7
F0.010108303249097473
sg8
F28.0
sg9
F0.14285714285714285
ssg37
(dp704
g7
F0.0007220216606498195
sg8
F2.0
sg9
F0.01020408163265306
sssg20
I0
sg21
I196
sg22
I124
sg23
I2770
ssS'makerbot'
p705
(dp706
g3
(dp707
g5
(dp708
g7
F0.10121229207781224
sg8
F359.0
sg9
F1.8040201005025125
ssg10
(dp709
g7
F0.0008457851705666761
sg8
F3.0
sg9
F0.01507537688442211
ssg12
(dp710
g7
F0.0459543276007894
sg8
F163.0
sg9
F0.8190954773869347
ssg57
(dp711
g7
F0.000281928390188892
sg8
F1.0
sg9
F0.005025125628140704
ssg30
(dp712
g7
F0.002255427121511136
sg8
F8.0
sg9
F0.04020100502512563
ssg14
(dp713
g7
F0.021144629264166902
sg8
F75.0
sg9
F0.3768844221105528
ssg16
(dp714
g7
F0.000563856780377784
sg8
F2.0
sg9
F0.010050251256281407
ssg34
(dp715
g7
F0.0008457851705666761
sg8
F3.0
sg9
F0.01507537688442211
ssg18
(dp716
g7
F0.02791091062870031
sg8
F99.0
sg9
F0.49748743718592964
ssg37
(dp717
g7
F0.00140964195094446
sg8
F5.0
sg9
F0.02512562814070352
sssg20
I0
sg21
I199
sg22
I359
sg23
I3547
ssS'CodeClub'
p718
(dp719
g3
(dp720
g5
(dp721
g7
F0.04481434058898848
sg8
F175.0
sg9
F0.8838383838383839
ssg10
(dp722
g7
F0.0028169014084507044
sg8
F11.0
sg9
F0.05555555555555555
ssg12
(dp723
g7
F0.022023047375160053
sg8
F86.0
sg9
F0.43434343434343436
ssg57
(dp724
g7
F0.00204865556978233
sg8
F8.0
sg9
F0.04040404040404041
ssg30
(dp725
g7
F0.006145966709346991
sg8
F24.0
sg9
F0.12121212121212122
ssg14
(dp726
g7
F0.005121638924455826
sg8
F20.0
sg9
F0.10101010101010101
ssg16
(dp727
g7
F0.00025608194622279127
sg8
F1.0
sg9
F0.005050505050505051
ssg18
(dp728
g7
F0.006402048655569782
sg8
F25.0
sg9
F0.12626262626262627
sssg20
I0
sg21
I198
sg22
I175
sg23
I3905
ssS'MakerShed'
p729
(dp730
g3
(dp731
g5
(dp732
g7
F0.0610051993067591
sg8
F176.0
sg9
F0.8844221105527639
ssg10
(dp733
g7
F0.0024263431542461003
sg8
F7.0
sg9
F0.035175879396984924
ssg12
(dp734
g7
F0.025649913344887348
sg8
F74.0
sg9
F0.37185929648241206
ssg57
(dp735
g7
F0.0010398613518197574
sg8
F3.0
sg9
F0.01507537688442211
ssg30
(dp736
g7
F0.003119584055459272
sg8
F9.0
sg9
F0.04522613065326633
ssg14
(dp737
g7
F0.01386481802426343
sg8
F40.0
sg9
F0.20100502512562815
ssg18
(dp738
g7
F0.01490467937608319
sg8
F43.0
sg9
F0.21608040201005024
sssg20
I0
sg21
I199
sg22
I176
sg23
I2885
ssVmaker
p739
(dp740
S'source'
p741
I1
sS'ntweets'
p742
I196
sS'nwords'
p743
I3065
sS'nmappings'
p744
I352
sS'scores'
p745
(dp746
S'all'
p747
(dp748
S'per_word'
p749
F0.11484502446982056
sS'raw'
p750
F352.0
sS'per_tweet'
p751
F1.7959183673469388
ssS'1'
p752
(dp753
g749
F0.0013050570962479609
sg750
F4.0
sg751
F0.02040816326530612
ssS'0'
p754
(dp755
g749
F0.04861337683523654
sg750
F149.0
sg751
F0.7602040816326531
ssS'3'
p756
(dp757
g749
F0.0006525285481239804
sg750
F2.0
sg751
F0.01020408163265306
ssS'2'
p758
(dp759
g749
F0.003915171288743882
sg750
F12.0
sg751
F0.061224489795918366
ssS'5'
p760
(dp761
g749
F0.02838499184339315
sg750
F87.0
sg751
F0.44387755102040816
ssS'4'
p762
(dp763
g749
F0.0003262642740619902
sg750
F1.0
sg751
F0.00510204081632653
ssS'7'
p764
(dp765
g749
F0.0006525285481239804
sg750
F2.0
sg751
F0.01020408163265306
ssS'6'
p766
(dp767
g749
F0.03099510603588907
sg750
F95.0
sg751
F0.4846938775510204
ssss.