(dp0
S'ThePiHut'
p1
(dp2
S'source'
p3
I0
sS'ntweets'
p4
I187
sS'nwords'
p5
I2487
sS'nmappings'
p6
I56
sS'scores'
p7
(dp8
S'all'
p9
(dp10
S'per_word'
p11
F0.02251708886208283
sS'raw'
p12
F56.0
sS'per_tweet'
p13
F0.2994652406417112
ssS'1'
p14
(dp15
g11
F0.0048250904704463205
sg12
F12.0
sg13
F0.06417112299465241
ssS'0'
p16
(dp17
g11
F0.010454362685967028
sg12
F26.0
sg13
F0.13903743315508021
ssS'5'
p18
(dp19
g11
F0.0036188178528347406
sg12
F9.0
sg13
F0.0481283422459893
ssS'4'
p20
(dp21
g11
F0.0004020908725371934
sg12
F1.0
sg13
F0.0053475935828877
ssS'6'
p22
(dp23
g11
F0.003216726980297547
sg12
F8.0
sg13
F0.0427807486631016
ssssS'My3DPrinting'
p24
(dp25
g3
I0
sg4
I200
sg5
I2612
sg6
I155
sg7
(dp26
g9
(dp27
g11
F0.05934150076569678
sg12
F155.0
sg13
F0.775
ssg14
(dp28
g11
F0.002297090352220521
sg12
F6.0
sg13
F0.03
ssg16
(dp29
g11
F0.031010719754977028
sg12
F81.0
sg13
F0.405
ssS'2'
p30
(dp31
g11
F0.0011485451761102604
sg12
F3.0
sg13
F0.015
ssg18
(dp32
g11
F0.007274119448698315
sg12
F19.0
sg13
F0.095
ssg20
(dp33
g11
F0.0011485451761102604
sg12
F3.0
sg13
F0.015
ssS'7'
p34
(dp35
g11
F0.002297090352220521
sg12
F6.0
sg13
F0.03
ssg22
(dp36
g11
F0.013782542113323124
sg12
F36.0
sg13
F0.18
ssS'8'
p37
(dp38
g11
F0.00038284839203675346
sg12
F1.0
sg13
F0.005
ssssS'instructables'
p39
(dp40
g3
I0
sg4
I180
sg5
I1381
sg6
I112
sg7
(dp41
g16
(dp42
g11
F0.04055032585083273
sg12
F56.0
sg13
F0.3111111111111111
ssg9
(dp43
g11
F0.08110065170166546
sg12
F112.0
sg13
F0.6222222222222222
ssg18
(dp44
g11
F0.015930485155684286
sg12
F22.0
sg13
F0.12222222222222222
ssg20
(dp45
g11
F0.005068790731354091
sg12
F7.0
sg13
F0.03888888888888889
ssg22
(dp46
g11
F0.01955104996379435
sg12
F27.0
sg13
F0.15
ssssS'lifehacker'
p47
(dp48
g3
I0
sg4
I200
sg5
I3093
sg6
I108
sg7
(dp49
g9
(dp50
g11
F0.03491755577109602
sg12
F108.0
sg13
F0.54
ssg14
(dp51
g11
F0.003556417717426447
sg12
F11.0
sg13
F0.055
ssg16
(dp52
g11
F0.0158422243776269
sg12
F49.0
sg13
F0.245
ssS'3'
p53
(dp54
g11
F0.0006466214031684449
sg12
F2.0
sg13
F0.01
ssg30
(dp55
g11
F0.0006466214031684449
sg12
F2.0
sg13
F0.01
ssg18
(dp56
g11
F0.006466214031684449
sg12
F20.0
sg13
F0.1
ssg22
(dp57
g11
F0.007759456838021339
sg12
F24.0
sg13
F0.12
ssssS'3DPrintGirl'
p58
(dp59
g3
I0
sg4
I200
sg5
I2620
sg6
I157
sg7
(dp60
g9
(dp61
g11
F0.059923664122137406
sg12
F157.0
sg13
F0.785
ssg14
(dp62
g11
F0.0022900763358778627
sg12
F6.0
sg13
F0.03
ssg16
(dp63
g11
F0.031297709923664124
sg12
F82.0
sg13
F0.41
ssg30
(dp64
g11
F0.0011450381679389313
sg12
F3.0
sg13
F0.015
ssg18
(dp65
g11
F0.007251908396946565
sg12
F19.0
sg13
F0.095
ssg20
(dp66
g11
F0.0011450381679389313
sg12
F3.0
sg13
F0.015
ssg34
(dp67
g11
F0.0022900763358778627
sg12
F6.0
sg13
F0.03
ssg22
(dp68
g11
F0.014122137404580152
sg12
F37.0
sg13
F0.185
ssg37
(dp69
g11
F0.0003816793893129771
sg12
F1.0
sg13
F0.005
ssssS'dangerousproto'
p70
(dp71
g3
I0
sg4
I177
sg5
I1480
sg6
I122
sg7
(dp72
g14
(dp73
g11
F0.029054054054054056
sg12
F43.0
sg13
F0.24293785310734464
ssg16
(dp74
g11
F0.043243243243243246
sg12
F64.0
sg13
F0.3615819209039548
ssg9
(dp75
g11
F0.08243243243243244
sg12
F122.0
sg13
F0.6892655367231638
ssg18
(dp76
g11
F0.004054054054054054
sg12
F6.0
sg13
F0.03389830508474576
ssg22
(dp77
g11
F0.006081081081081081
sg12
F9.0
sg13
F0.05084745762711865
ssssS'makerfaire'
p78
(dp79
g3
I0
sg4
I194
sg5
I2932
sg6
I230
sg7
(dp80
g9
(dp81
g11
F0.07844474761255116
sg12
F230.0
sg13
F1.1855670103092784
ssg14
(dp82
g11
F0.002728512960436562
sg12
F8.0
sg13
F0.041237113402061855
ssg16
(dp83
g11
F0.03274215552523874
sg12
F96.0
sg13
F0.4948453608247423
ssg53
(dp84
g11
F0.0010231923601637107
sg12
F3.0
sg13
F0.015463917525773196
ssg30
(dp85
g11
F0.002728512960436562
sg12
F8.0
sg13
F0.041237113402061855
ssg18
(dp86
g11
F0.018417462482946793
sg12
F54.0
sg13
F0.27835051546391754
ssg22
(dp87
g11
F0.020804911323328786
sg12
F61.0
sg13
F0.31443298969072164
ssssS'planetarduino'
p88
(dp89
g3
I0
sg4
I167
sg5
I1650
sg6
I79
sg7
(dp90
g14
(dp91
g11
F0.006666666666666667
sg12
F11.0
sg13
F0.0658682634730539
ssg16
(dp92
g11
F0.020606060606060607
sg12
F34.0
sg13
F0.20359281437125748
ssg9
(dp93
g11
F0.04787878787878788
sg12
F79.0
sg13
F0.47305389221556887
ssg18
(dp94
g11
F0.010303030303030303
sg12
F17.0
sg13
F0.10179640718562874
ssg22
(dp95
g11
F0.010303030303030303
sg12
F17.0
sg13
F0.10179640718562874
ssssS'linuxfoundation'
p96
(dp97
g3
I0
sg4
I198
sg5
I3247
sg6
I226
sg7
(dp98
g9
(dp99
g11
F0.06960271019402525
sg12
F226.0
sg13
F1.1414141414141414
ssg14
(dp100
g11
F0.013858946720049276
sg12
F45.0
sg13
F0.22727272727272727
ssg16
(dp101
g11
F0.036957191253464736
sg12
F120.0
sg13
F0.6060606060606061
ssg53
(dp102
g11
F0.0033877425315676007
sg12
F11.0
sg13
F0.05555555555555555
ssg30
(dp103
g11
F0.004311672312904219
sg12
F14.0
sg13
F0.0707070707070707
ssg18
(dp104
g11
F0.004003695719125347
sg12
F13.0
sg13
F0.06565656565656566
ssg20
(dp105
g11
F0.0012319063751154912
sg12
F4.0
sg13
F0.020202020202020204
ssg22
(dp106
g11
F0.004927625500461965
sg12
F16.0
sg13
F0.08080808080808081
ssg37
(dp107
g11
F0.0009239297813366184
sg12
F3.0
sg13
F0.015151515151515152
ssssS'3dprintindustry'
p108
(dp109
g3
I0
sg4
I191
sg5
I3117
sg6
I133
sg7
(dp110
g9
(dp111
g11
F0.04266923323708694
sg12
F133.0
sg13
F0.6963350785340314
ssg14
(dp112
g11
F0.0028873917228103944
sg12
F9.0
sg13
F0.04712041884816754
ssg16
(dp113
g11
F0.014757779916586462
sg12
F46.0
sg13
F0.24083769633507854
ssg18
(dp114
g11
F0.005133140840551813
sg12
F16.0
sg13
F0.08376963350785341
ssg34
(dp115
g11
F0.011870388193776067
sg12
F37.0
sg13
F0.193717277486911
ssg22
(dp116
g11
F0.008020532563362208
sg12
F25.0
sg13
F0.13089005235602094
ssssS'Raspberry_Pi'
p117
(dp118
g3
I0
sg4
I184
sg5
I3030
sg6
I127
sg7
(dp119
g9
(dp120
g11
F0.04191419141914191
sg12
F127.0
sg13
F0.6902173913043478
ssg14
(dp121
g11
F0.0036303630363036304
sg12
F11.0
sg13
F0.059782608695652176
ssg16
(dp122
g11
F0.019471947194719473
sg12
F59.0
sg13
F0.32065217391304346
ssg53
(dp123
g11
F0.0009900990099009901
sg12
F3.0
sg13
F0.016304347826086956
ssg30
(dp124
g11
F0.0023102310231023103
sg12
F7.0
sg13
F0.03804347826086957
ssg18
(dp125
g11
F0.006600660066006601
sg12
F20.0
sg13
F0.10869565217391304
ssg20
(dp126
g11
F0.0009900990099009901
sg12
F3.0
sg13
F0.016304347826086956
ssg34
(dp127
g11
F0.00033003300330033004
sg12
F1.0
sg13
F0.005434782608695652
ssg22
(dp128
g11
F0.007260726072607261
sg12
F22.0
sg13
F0.11956521739130435
ssg37
(dp129
g11
F0.00033003300330033004
sg12
F1.0
sg13
F0.005434782608695652
ssssS'3dprinting3d'
p130
(dp131
g3
I0
sg4
I199
sg5
I2794
sg6
I133
sg7
(dp132
g9
(dp133
g11
F0.047602004294917684
sg12
F133.0
sg13
F0.6683417085427136
ssg14
(dp134
g11
F0.0010737294201861132
sg12
F3.0
sg13
F0.01507537688442211
ssg16
(dp135
g11
F0.01968503937007874
sg12
F55.0
sg13
F0.27638190954773867
ssg30
(dp136
g11
F0.00035790980672870435
sg12
F1.0
sg13
F0.005025125628140704
ssg18
(dp137
g11
F0.00894774516821761
sg12
F25.0
sg13
F0.12562814070351758
ssg20
(dp138
g11
F0.0007158196134574087
sg12
F2.0
sg13
F0.010050251256281407
ssg34
(dp139
g11
F0.006442376521116679
sg12
F18.0
sg13
F0.09045226130653267
ssg22
(dp140
g11
F0.010379384395132427
sg12
F29.0
sg13
F0.1457286432160804
ssssS'ModMyPi'
p141
(dp142
g3
I0
sg4
I199
sg5
I3217
sg6
I74
sg7
(dp143
g9
(dp144
g11
F0.023002797637550514
sg12
F74.0
sg13
F0.37185929648241206
ssg14
(dp145
g11
F0.002175940317065589
sg12
F7.0
sg13
F0.035175879396984924
ssg16
(dp146
g11
F0.010568852968604289
sg12
F34.0
sg13
F0.1708542713567839
ssg53
(dp147
g11
F0.00031084861672365556
sg12
F1.0
sg13
F0.005025125628140704
ssg30
(dp148
g11
F0.0006216972334473111
sg12
F2.0
sg13
F0.010050251256281407
ssg18
(dp149
g11
F0.0034193347839602114
sg12
F11.0
sg13
F0.05527638190954774
ssg34
(dp150
g11
F0.00031084861672365556
sg12
F1.0
sg13
F0.005025125628140704
ssg22
(dp151
g11
F0.0052844264843021444
sg12
F17.0
sg13
F0.08542713567839195
ssg37
(dp152
g11
F0.00031084861672365556
sg12
F1.0
sg13
F0.005025125628140704
ssssS'hackaday'
p153
(dp154
g3
I0
sg4
I191
sg5
I2328
sg6
I120
sg7
(dp155
g9
(dp156
g11
F0.05154639175257732
sg12
F120.0
sg13
F0.6282722513089005
ssg14
(dp157
g11
F0.003865979381443299
sg12
F9.0
sg13
F0.04712041884816754
ssg16
(dp158
g11
F0.02534364261168385
sg12
F59.0
sg13
F0.3089005235602094
ssg53
(dp159
g11
F0.000859106529209622
sg12
F2.0
sg13
F0.010471204188481676
ssg30
(dp160
g11
F0.002147766323024055
sg12
F5.0
sg13
F0.02617801047120419
ssg18
(dp161
g11
F0.007302405498281787
sg12
F17.0
sg13
F0.08900523560209424
ssg34
(dp162
g11
F0.002147766323024055
sg12
F5.0
sg13
F0.02617801047120419
ssg22
(dp163
g11
F0.009879725085910653
sg12
F23.0
sg13
F0.12041884816753927
ssssVBarackObama
p164
(dp165
S'scores'
p166
(dp167
S'all'
p168
(dp169
S'per_word'
p170
F0.04488703923900119
sS'raw'
p171
F151.0
sS'per_tweet'
p172
F0.7626262626262627
ssS'1'
p173
(dp174
g170
F0.0032699167657550534
sg171
F11.0
sg172
F0.05555555555555555
ssS'0'
p175
(dp176
g170
F0.021105826397146255
sg171
F71.0
sg172
F0.35858585858585856
ssS'3'
p177
(dp178
g170
F0.0008917954815695601
sg171
F3.0
sg172
F0.015151515151515152
ssS'2'
p179
(dp180
g170
F0.0017835909631391202
sg171
F6.0
sg172
F0.030303030303030304
ssS'5'
p181
(dp182
g170
F0.00267538644470868
sg171
F9.0
sg172
F0.045454545454545456
ssS'4'
p183
(dp184
g170
F0.00535077288941736
sg171
F18.0
sg172
F0.09090909090909091
ssS'7'
p185
(dp186
g170
F0.00029726516052318666
sg171
F1.0
sg172
F0.005050505050505051
ssS'6'
p187
(dp188
g170
F0.008620689655172414
sg171
F29.0
sg172
F0.14646464646464646
ssS'8'
p189
(dp190
g170
F0.0008917954815695601
sg171
F3.0
sg172
F0.015151515151515152
sssS'source'
p191
I1
sS'ntweets'
p192
I198
sS'nmappings'
p193
I151
sS'nwords'
p194
I3364
ssS'MicrochipMakes'
p195
(dp196
g3
I0
sg4
I198
sg5
I2991
sg6
I165
sg7
(dp197
g9
(dp198
g11
F0.055165496489468405
sg12
F165.0
sg13
F0.8333333333333334
ssg14
(dp199
g11
F0.0056837178201270475
sg12
F17.0
sg13
F0.08585858585858586
ssg16
(dp200
g11
F0.024406552992310263
sg12
F73.0
sg13
F0.3686868686868687
ssg53
(dp201
g11
F0.00033433634236041456
sg12
F1.0
sg13
F0.005050505050505051
ssg30
(dp202
g11
F0.00033433634236041456
sg12
F1.0
sg13
F0.005050505050505051
ssg18
(dp203
g11
F0.01170177198261451
sg12
F35.0
sg13
F0.17676767676767677
ssg20
(dp204
g11
F0.0006686726847208291
sg12
F2.0
sg13
F0.010101010101010102
ssg22
(dp205
g11
F0.012036108324974924
sg12
F36.0
sg13
F0.18181818181818182
ssssS'adafruit'
p206
(dp207
g3
I0
sg4
I178
sg5
I2266
sg6
I77
sg7
(dp208
g9
(dp209
g11
F0.03398058252427184
sg12
F77.0
sg13
F0.43258426966292135
ssg14
(dp210
g11
F0.00353045013239188
sg12
F8.0
sg13
F0.0449438202247191
ssg16
(dp211
g11
F0.01588702559576346
sg12
F36.0
sg13
F0.20224719101123595
ssg53
(dp212
g11
F0.000441306266548985
sg12
F1.0
sg13
F0.0056179775280898875
ssg30
(dp213
g11
F0.00088261253309797
sg12
F2.0
sg13
F0.011235955056179775
ssg18
(dp214
g11
F0.00617828773168579
sg12
F14.0
sg13
F0.07865168539325842
ssg22
(dp215
g11
F0.00706090026478376
sg12
F16.0
sg13
F0.0898876404494382
ssssS'3dersorg'
p216
(dp217
g3
I0
sg4
I196
sg5
I3127
sg6
I199
sg7
(dp218
g9
(dp219
g11
F0.06363927086664535
sg12
F199.0
sg13
F1.0153061224489797
ssg14
(dp220
g11
F0.003837543971858011
sg12
F12.0
sg13
F0.061224489795918366
ssg16
(dp221
g11
F0.028781579788935082
sg12
F90.0
sg13
F0.45918367346938777
ssg30
(dp222
g11
F0.0015989766549408379
sg12
F5.0
sg13
F0.025510204081632654
ssg18
(dp223
g11
F0.012472017908538535
sg12
F39.0
sg13
F0.1989795918367347
ssg20
(dp224
g11
F0.0006395906619763352
sg12
F2.0
sg13
F0.01020408163265306
ssg34
(dp225
g11
F0.002878157978893508
sg12
F9.0
sg13
F0.04591836734693878
ssg22
(dp226
g11
F0.013431403901503039
sg12
F42.0
sg13
F0.21428571428571427
ssssS'3dprintingcom'
p227
(dp228
g3
I0
sg4
I195
sg5
I2702
sg6
I132
sg7
(dp229
g9
(dp230
g11
F0.04885270170244264
sg12
F132.0
sg13
F0.676923076923077
ssg14
(dp231
g11
F0.0029607698001480384
sg12
F8.0
sg13
F0.041025641025641026
ssg16
(dp232
g11
F0.0229459659511473
sg12
F62.0
sg13
F0.31794871794871793
ssg18
(dp233
g11
F0.006661732050333087
sg12
F18.0
sg13
F0.09230769230769231
ssg20
(dp234
g11
F0.0007401924500370096
sg12
F2.0
sg13
F0.010256410256410256
ssg34
(dp235
g11
F0.0029607698001480384
sg12
F8.0
sg13
F0.041025641025641026
ssg22
(dp236
g11
F0.012583271650629163
sg12
F34.0
sg13
F0.17435897435897435
ssssS'htpc_guides'
p237
(dp238
g3
I0
sg4
I159
sg5
I1684
sg6
I69
sg7
(dp239
g14
(dp240
g11
F0.004750593824228029
sg12
F8.0
sg13
F0.050314465408805034
ssg16
(dp241
g11
F0.019596199524940617
sg12
F33.0
sg13
F0.20754716981132076
ssg9
(dp242
g11
F0.040973871733966744
sg12
F69.0
sg13
F0.4339622641509434
ssg18
(dp243
g11
F0.012470308788598575
sg12
F21.0
sg13
F0.1320754716981132
ssg22
(dp244
g11
F0.004156769596199525
sg12
F7.0
sg13
F0.0440251572327044
ssssS'ColorFabb'
p245
(dp246
g3
I0
sg4
I182
sg5
I2994
sg6
I100
sg7
(dp247
g9
(dp248
g11
F0.033400133600534405
sg12
F100.0
sg13
F0.5494505494505495
ssg14
(dp249
g11
F0.0013360053440213762
sg12
F4.0
sg13
F0.02197802197802198
ssg16
(dp250
g11
F0.017702070808283232
sg12
F53.0
sg13
F0.29120879120879123
ssg18
(dp251
g11
F0.005344021376085505
sg12
F16.0
sg13
F0.08791208791208792
ssg20
(dp252
g11
F0.0006680026720106881
sg12
F2.0
sg13
F0.01098901098901099
ssg22
(dp253
g11
F0.007348029392117568
sg12
F22.0
sg13
F0.12087912087912088
ssg37
(dp254
g11
F0.001002004008016032
sg12
F3.0
sg13
F0.016483516483516484
ssssS'xKaliSec'
p255
(dp256
g3
I0
sg4
I183
sg5
I2222
sg6
I141
sg7
(dp257
g9
(dp258
g11
F0.06345634563456345
sg12
F141.0
sg13
F0.7704918032786885
ssg14
(dp259
g11
F0.004500450045004501
sg12
F10.0
sg13
F0.0546448087431694
ssg16
(dp260
g11
F0.0279027902790279
sg12
F62.0
sg13
F0.33879781420765026
ssg18
(dp261
g11
F0.01395139513951395
sg12
F31.0
sg13
F0.16939890710382513
ssg34
(dp262
g11
F0.0013501350135013501
sg12
F3.0
sg13
F0.01639344262295082
ssg22
(dp263
g11
F0.0153015301530153
sg12
F34.0
sg13
F0.18579234972677597
ssg37
(dp264
g11
F0.00045004500450045
sg12
F1.0
sg13
F0.00546448087431694
ssssS'make'
p265
(dp266
g3
I0
sg4
I196
sg5
I3412
sg6
I336
sg7
(dp267
g9
(dp268
g11
F0.0984759671746776
sg12
F336.0
sg13
F1.7142857142857142
ssg14
(dp269
g11
F0.003223915592028136
sg12
F11.0
sg13
F0.05612244897959184
ssg16
(dp270
g11
F0.04015240328253224
sg12
F137.0
sg13
F0.6989795918367347
ssg53
(dp271
g11
F0.0011723329425556857
sg12
F4.0
sg13
F0.02040816326530612
ssg30
(dp272
g11
F0.0023446658851113715
sg12
F8.0
sg13
F0.04081632653061224
ssg18
(dp273
g11
F0.023153575615474795
sg12
F79.0
sg13
F0.4030612244897959
ssg20
(dp274
g11
F0.0005861664712778429
sg12
F2.0
sg13
F0.01020408163265306
ssg34
(dp275
g11
F0.0005861664712778429
sg12
F2.0
sg13
F0.01020408163265306
ssg22
(dp276
g11
F0.026670574443141852
sg12
F91.0
sg13
F0.4642857142857143
ssg37
(dp277
g11
F0.0005861664712778429
sg12
F2.0
sg13
F0.01020408163265306
ssssS'TheMagP1'
p278
(dp279
g3
I0
sg4
I191
sg5
I2969
sg6
I105
sg7
(dp280
g9
(dp281
g11
F0.03536544291007073
sg12
F105.0
sg13
F0.5497382198952879
ssg14
(dp282
g11
F0.004715392388009431
sg12
F14.0
sg13
F0.07329842931937172
ssg16
(dp283
g11
F0.017177500842034354
sg12
F51.0
sg13
F0.2670157068062827
ssg30
(dp284
g11
F0.0006736274840013472
sg12
F2.0
sg13
F0.010471204188481676
ssg18
(dp285
g11
F0.0057258336140114515
sg12
F17.0
sg13
F0.08900523560209424
ssg20
(dp286
g11
F0.0003368137420006736
sg12
F1.0
sg13
F0.005235602094240838
ssg22
(dp287
g11
F0.006399461098012799
sg12
F19.0
sg13
F0.09947643979057591
ssg37
(dp288
g11
F0.0003368137420006736
sg12
F1.0
sg13
F0.005235602094240838
ssssS'3dsystems'
p289
(dp290
g3
I0
sg4
I197
sg5
I3283
sg6
I191
sg7
(dp291
g9
(dp292
g11
F0.0581784952787085
sg12
F191.0
sg13
F0.9695431472081218
ssg14
(dp293
g11
F0.0015229972586049345
sg12
F5.0
sg13
F0.025380710659898477
ssg16
(dp294
g11
F0.031069144075540664
sg12
F102.0
sg13
F0.5177664974619289
ssg30
(dp295
g11
F0.0012183978068839476
sg12
F4.0
sg13
F0.02030456852791878
ssg18
(dp296
g11
F0.007919585744745659
sg12
F26.0
sg13
F0.1319796954314721
ssg20
(dp297
g11
F0.0003045994517209869
sg12
F1.0
sg13
F0.005076142131979695
ssg34
(dp298
g11
F0.003655193420651843
sg12
F12.0
sg13
F0.06091370558375635
ssg22
(dp299
g11
F0.012183978068839476
sg12
F40.0
sg13
F0.20304568527918782
ssg37
(dp300
g11
F0.0003045994517209869
sg12
F1.0
sg13
F0.005076142131979695
ssssS'shapeways'
p301
(dp302
g3
I0
sg4
I195
sg5
I2915
sg6
I176
sg7
(dp303
g9
(dp304
g11
F0.06037735849056604
sg12
F176.0
sg13
F0.9025641025641026
ssg14
(dp305
g11
F0.002058319039451115
sg12
F6.0
sg13
F0.03076923076923077
ssg16
(dp306
g11
F0.03156089193825043
sg12
F92.0
sg13
F0.4717948717948718
ssg53
(dp307
g11
F0.003430531732418525
sg12
F10.0
sg13
F0.05128205128205128
ssg30
(dp308
g11
F0.003430531732418525
sg12
F10.0
sg13
F0.05128205128205128
ssg18
(dp309
g11
F0.007890222984562607
sg12
F23.0
sg13
F0.11794871794871795
ssg20
(dp310
g11
F0.0017152658662092624
sg12
F5.0
sg13
F0.02564102564102564
ssg34
(dp311
g11
F0.0006861063464837049
sg12
F2.0
sg13
F0.010256410256410256
ssg22
(dp312
g11
F0.009262435677530018
sg12
F27.0
sg13
F0.13846153846153847
ssg37
(dp313
g11
F0.00034305317324185246
sg12
F1.0
sg13
F0.005128205128205128
ssssVbokeh
p314
(dp315
S'scores'
p316
(dp317
S'all'
p318
(dp319
S'per_word'
p320
F0.0
sS'raw'
p321
F0.0
sS'per_tweet'
p322
F0.0
sssS'source'
p323
I1
sS'ntweets'
p324
I5
sS'nmappings'
p325
I0
sS'nwords'
p326
I54
ssVBernieSanders
p327
(dp328
S'source'
p329
I1
sS'ntweets'
p330
I200
sS'nwords'
p331
I4050
sS'nmappings'
p332
I180
sS'scores'
p333
(dp334
S'all'
p335
(dp336
S'per_word'
p337
F0.044444444444444446
sS'raw'
p338
F180.0
sS'per_tweet'
p339
F0.9
ssS'1'
p340
(dp341
g337
F0.0014814814814814814
sg338
F6.0
sg339
F0.03
ssS'0'
p342
(dp343
g337
F0.018765432098765432
sg338
F76.0
sg339
F0.38
ssS'3'
p344
(dp345
g337
F0.0034567901234567903
sg338
F14.0
sg339
F0.07
ssS'2'
p346
(dp347
g337
F0.002962962962962963
sg338
F12.0
sg339
F0.06
ssS'5'
p348
(dp349
g337
F0.004197530864197531
sg338
F17.0
sg339
F0.085
ssS'4'
p350
(dp351
g337
F0.0024691358024691358
sg338
F10.0
sg339
F0.05
ssS'7'
p352
(dp353
g337
F0.0009876543209876543
sg338
F4.0
sg339
F0.02
ssS'6'
p354
(dp355
g337
F0.007160493827160494
sg338
F29.0
sg339
F0.145
ssS'8'
p356
(dp357
g337
F0.002962962962962963
sg338
F12.0
sg339
F0.06
ssssS'freetronics'
p358
(dp359
g3
I0
sg4
I184
sg5
I2498
sg6
I178
sg7
(dp360
g9
(dp361
g11
F0.07125700560448359
sg12
F178.0
sg13
F0.967391304347826
ssg14
(dp362
g11
F0.02802241793434748
sg12
F70.0
sg13
F0.3804347826086957
ssg16
(dp363
g11
F0.03763010408326661
sg12
F94.0
sg13
F0.5108695652173914
ssg18
(dp364
g11
F0.0016012810248198558
sg12
F4.0
sg13
F0.021739130434782608
ssg20
(dp365
g11
F0.0012009607686148918
sg12
F3.0
sg13
F0.016304347826086956
ssg34
(dp366
g11
F0.0008006405124099279
sg12
F2.0
sg13
F0.010869565217391304
ssg22
(dp367
g11
F0.0020016012810248197
sg12
F5.0
sg13
F0.02717391304347826
ssssS'3DPrintingIt'
p368
(dp369
g3
I0
sg4
I200
sg5
I2629
sg6
I158
sg7
(dp370
g9
(dp371
g11
F0.0600988969189806
sg12
F158.0
sg13
F0.79
ssg14
(dp372
g11
F0.002282236591860023
sg12
F6.0
sg13
F0.03
ssg16
(dp373
g11
F0.031190566755420313
sg12
F82.0
sg13
F0.41
ssg30
(dp374
g11
F0.0011411182959300114
sg12
F3.0
sg13
F0.015
ssg18
(dp375
g11
F0.007607455306200076
sg12
F20.0
sg13
F0.1
ssg20
(dp376
g11
F0.0011411182959300114
sg12
F3.0
sg13
F0.015
ssg34
(dp377
g11
F0.002282236591860023
sg12
F6.0
sg13
F0.03
ssg22
(dp378
g11
F0.01407379231647014
sg12
F37.0
sg13
F0.185
ssg37
(dp379
g11
F0.0003803727653100038
sg12
F1.0
sg13
F0.005
ssssS'androidcentral'
p380
(dp381
g3
I0
sg4
I200
sg5
I3193
sg6
I91
sg7
(dp382
g9
(dp383
g11
F0.028499843407453804
sg12
F91.0
sg13
F0.455
ssg14
(dp384
g11
F0.0034450360162856246
sg12
F11.0
sg13
F0.055
ssg16
(dp385
g11
F0.013153773880363295
sg12
F42.0
sg13
F0.21
ssg30
(dp386
g11
F0.0009395552771688068
sg12
F3.0
sg13
F0.015
ssg18
(dp387
g11
F0.005324146570623238
sg12
F17.0
sg13
F0.085
ssg34
(dp388
g11
F0.0006263701847792045
sg12
F2.0
sg13
F0.01
ssg22
(dp389
g11
F0.004697776385844034
sg12
F15.0
sg13
F0.075
ssg37
(dp390
g11
F0.00031318509238960227
sg12
F1.0
sg13
F0.005
ssssS'Ultimaker'
p391
(dp392
g3
I0
sg4
I199
sg5
I3538
sg6
I289
sg7
(dp393
g9
(dp394
g11
F0.08168456755228942
sg12
F289.0
sg13
F1.4522613065326633
ssg14
(dp395
g11
F0.00395703787450537
sg12
F14.0
sg13
F0.07035175879396985
ssg16
(dp396
g11
F0.03900508762012436
sg12
F138.0
sg13
F0.6934673366834171
ssg53
(dp397
g11
F0.0011305822498586771
sg12
F4.0
sg13
F0.020100502512562814
ssg30
(dp398
g11
F0.0033917467495760316
sg12
F12.0
sg13
F0.06030150753768844
ssg18
(dp399
g11
F0.014697569248162803
sg12
F52.0
sg13
F0.2613065326633166
ssg20
(dp400
g11
F0.0014132278123233466
sg12
F5.0
sg13
F0.02512562814070352
ssg34
(dp401
g11
F0.0005652911249293386
sg12
F2.0
sg13
F0.010050251256281407
ssg22
(dp402
g11
F0.01667608818541549
sg12
F59.0
sg13
F0.2964824120603015
ssg37
(dp403
g11
F0.0008479366873940079
sg12
F3.0
sg13
F0.01507537688442211
ssssS'3dprinting'
p404
(dp405
g3
I0
sg4
I176
sg5
I2967
sg6
I125
sg7
(dp406
g9
(dp407
g11
F0.04213009774182676
sg12
F125.0
sg13
F0.7102272727272727
ssg14
(dp408
g11
F0.0023592854735422987
sg12
F7.0
sg13
F0.03977272727272727
ssg16
(dp409
g11
F0.01954836535220762
sg12
F58.0
sg13
F0.32954545454545453
ssg30
(dp410
g11
F0.0006740815638692282
sg12
F2.0
sg13
F0.011363636363636364
ssg18
(dp411
g11
F0.006740815638692282
sg12
F20.0
sg13
F0.11363636363636363
ssg20
(dp412
g11
F0.0006740815638692282
sg12
F2.0
sg13
F0.011363636363636364
ssg34
(dp413
g11
F0.0020222446916076846
sg12
F6.0
sg13
F0.03409090909090909
ssg22
(dp414
g11
F0.009437141894169195
sg12
F28.0
sg13
F0.1590909090909091
ssg37
(dp415
g11
F0.0006740815638692282
sg12
F2.0
sg13
F0.011363636363636364
ssssS'3DPrintBoard'
p416
(dp417
g3
I0
sg4
I200
sg5
I2615
sg6
I157
sg7
(dp418
g9
(dp419
g11
F0.060038240917782024
sg12
F157.0
sg13
F0.785
ssg14
(dp420
g11
F0.002294455066921606
sg12
F6.0
sg13
F0.03
ssg16
(dp421
g11
F0.03135755258126195
sg12
F82.0
sg13
F0.41
ssg30
(dp422
g11
F0.001147227533460803
sg12
F3.0
sg13
F0.015
ssg18
(dp423
g11
F0.007265774378585086
sg12
F19.0
sg13
F0.095
ssg20
(dp424
g11
F0.001147227533460803
sg12
F3.0
sg13
F0.015
ssg34
(dp425
g11
F0.002294455066921606
sg12
F6.0
sg13
F0.03
ssg22
(dp426
g11
F0.014149139579349905
sg12
F37.0
sg13
F0.185
ssg37
(dp427
g11
F0.0003824091778202677
sg12
F1.0
sg13
F0.005
ssssS'pimoroni'
p428
(dp429
g3
I0
sg4
I192
sg5
I2987
sg6
I78
sg7
(dp430
g9
(dp431
g11
F0.026113157013726147
sg12
F78.0
sg13
F0.40625
ssg14
(dp432
g11
F0.003013056578506863
sg12
F9.0
sg13
F0.046875
ssg16
(dp433
g11
F0.012052226314027453
sg12
F36.0
sg13
F0.1875
ssg53
(dp434
g11
F0.00033478406427854036
sg12
F1.0
sg13
F0.005208333333333333
ssg30
(dp435
g11
F0.0006695681285570807
sg12
F2.0
sg13
F0.010416666666666666
ssg18
(dp436
g11
F0.0033478406427854034
sg12
F10.0
sg13
F0.052083333333333336
ssg22
(dp437
g11
F0.006026113157013726
sg12
F18.0
sg13
F0.09375
ssg37
(dp438
g11
F0.0006695681285570807
sg12
F2.0
sg13
F0.010416666666666666
ssssVBokehPlots
p439
(dp440
S'scores'
p441
(dp442
S'all'
p443
(dp444
S'per_word'
p445
F0.0392156862745098
sS'raw'
p446
F32.0
sS'per_tweet'
p447
F0.6666666666666666
ssS'1'
p448
(dp449
g445
F0.0024509803921568627
sg446
F2.0
sg447
F0.041666666666666664
ssS'0'
p450
(dp451
g445
F0.01715686274509804
sg446
F14.0
sg447
F0.2916666666666667
ssS'2'
p452
(dp453
g445
F0.0024509803921568627
sg446
F2.0
sg447
F0.041666666666666664
ssS'5'
p454
(dp455
g445
F0.007352941176470588
sg446
F6.0
sg447
F0.125
ssS'6'
p456
(dp457
g445
F0.00980392156862745
sg446
F8.0
sg447
F0.16666666666666666
sssS'source'
p458
I1
sS'ntweets'
p459
I48
sS'nmappings'
p460
I32
sS'nwords'
p461
I816
ssS'RSComponents'
p462
(dp463
g3
I0
sg4
I199
sg5
I3030
sg6
I162
sg7
(dp464
g9
(dp465
g11
F0.053465346534653464
sg12
F162.0
sg13
F0.8140703517587939
ssg14
(dp466
g11
F0.0026402640264026403
sg12
F8.0
sg13
F0.04020100502512563
ssg16
(dp467
g11
F0.02574257425742574
sg12
F78.0
sg13
F0.39195979899497485
ssg53
(dp468
g11
F0.0013201320132013201
sg12
F4.0
sg13
F0.020100502512562814
ssg30
(dp469
g11
F0.0016501650165016502
sg12
F5.0
sg13
F0.02512562814070352
ssg18
(dp470
g11
F0.006930693069306931
sg12
F21.0
sg13
F0.10552763819095477
ssg20
(dp471
g11
F0.0013201320132013201
sg12
F4.0
sg13
F0.020100502512562814
ssg34
(dp472
g11
F0.0013201320132013201
sg12
F4.0
sg13
F0.020100502512562814
ssg22
(dp473
g11
F0.01221122112211221
sg12
F37.0
sg13
F0.18592964824120603
ssg37
(dp474
g11
F0.00033003300330033004
sg12
F1.0
sg13
F0.005025125628140704
ssssS'Pi_Borg'
p475
(dp476
g3
I0
sg4
I196
sg5
I3044
sg6
I40
sg7
(dp477
g9
(dp478
g11
F0.013140604467805518
sg12
F40.0
sg13
F0.20408163265306123
ssg14
(dp479
g11
F0.000657030223390276
sg12
F2.0
sg13
F0.01020408163265306
ssg16
(dp480
g11
F0.006898817345597897
sg12
F21.0
sg13
F0.10714285714285714
ssg30
(dp481
g11
F0.000328515111695138
sg12
F1.0
sg13
F0.00510204081632653
ssg18
(dp482
g11
F0.0022996057818659658
sg12
F7.0
sg13
F0.03571428571428571
ssg22
(dp483
g11
F0.002956636005256242
sg12
F9.0
sg13
F0.04591836734693878
ssssVzalamerabnb
p484
(dp485
S'source'
p486
I1
sS'ntweets'
p487
I7
sS'nwords'
p488
I91
sS'nmappings'
p489
I4
sS'scores'
p490
(dp491
S'0'
p492
(dp493
S'per_word'
p494
F0.02197802197802198
sS'raw'
p495
F2.0
sS'per_tweet'
p496
F0.2857142857142857
ssS'all'
p497
(dp498
g494
F0.04395604395604396
sg495
F4.0
sg496
F0.5714285714285714
ssS'4'
p499
(dp500
g494
F0.02197802197802198
sg495
F2.0
sg496
F0.2857142857142857
ssssS'mbanzi'
p501
(dp502
g3
I0
sg4
I172
sg5
I2575
sg6
I146
sg7
(dp503
g9
(dp504
g11
F0.05669902912621359
sg12
F146.0
sg13
F0.8488372093023255
ssg14
(dp505
g11
F0.007378640776699029
sg12
F19.0
sg13
F0.11046511627906977
ssg16
(dp506
g11
F0.02640776699029126
sg12
F68.0
sg13
F0.3953488372093023
ssg53
(dp507
g11
F0.0011650485436893205
sg12
F3.0
sg13
F0.01744186046511628
ssg30
(dp508
g11
F0.0011650485436893205
sg12
F3.0
sg13
F0.01744186046511628
ssg18
(dp509
g11
F0.007378640776699029
sg12
F19.0
sg13
F0.11046511627906977
ssg20
(dp510
g11
F0.0003883495145631068
sg12
F1.0
sg13
F0.005813953488372093
ssg34
(dp511
g11
F0.002330097087378641
sg12
F6.0
sg13
F0.03488372093023256
ssg22
(dp512
g11
F0.010097087378640776
sg12
F26.0
sg13
F0.1511627906976744
ssg37
(dp513
g11
F0.0003883495145631068
sg12
F1.0
sg13
F0.005813953488372093
ssssS'fabbaloo'
p514
(dp515
g3
I0
sg4
I193
sg5
I2420
sg6
I154
sg7
(dp516
g9
(dp517
g11
F0.06363636363636363
sg12
F154.0
sg13
F0.7979274611398963
ssg14
(dp518
g11
F0.009917355371900827
sg12
F24.0
sg13
F0.12435233160621761
ssg16
(dp519
g11
F0.02727272727272727
sg12
F66.0
sg13
F0.34196891191709844
ssg18
(dp520
g11
F0.010330578512396695
sg12
F25.0
sg13
F0.12953367875647667
ssg34
(dp521
g11
F0.004132231404958678
sg12
F10.0
sg13
F0.05181347150259067
ssg22
(dp522
g11
F0.01115702479338843
sg12
F27.0
sg13
F0.13989637305699482
ssg37
(dp523
g11
F0.0008264462809917355
sg12
F2.0
sg13
F0.010362694300518135
ssssS'imaterialise'
p524
(dp525
g3
I0
sg4
I198
sg5
I3222
sg6
I164
sg7
(dp526
g9
(dp527
g11
F0.05090006207324643
sg12
F164.0
sg13
F0.8282828282828283
ssg14
(dp528
g11
F0.002793296089385475
sg12
F9.0
sg13
F0.045454545454545456
ssg16
(dp529
g11
F0.027932960893854747
sg12
F90.0
sg13
F0.45454545454545453
ssg53
(dp530
g11
F0.00031036623215394165
sg12
F1.0
sg13
F0.005050505050505051
ssg30
(dp531
g11
F0.0006207324643078833
sg12
F2.0
sg13
F0.010101010101010102
ssg18
(dp532
g11
F0.008379888268156424
sg12
F27.0
sg13
F0.13636363636363635
ssg22
(dp533
g11
F0.010552451893234015
sg12
F34.0
sg13
F0.1717171717171717
ssg37
(dp534
g11
F0.00031036623215394165
sg12
F1.0
sg13
F0.005050505050505051
ssssS'StackSocial'
p535
(dp536
g3
I0
sg4
I198
sg5
I3275
sg6
I164
sg7
(dp537
g9
(dp538
g11
F0.050076335877862595
sg12
F164.0
sg13
F0.8282828282828283
ssg14
(dp539
g11
F0.00366412213740458
sg12
F12.0
sg13
F0.06060606060606061
ssg16
(dp540
g11
F0.023206106870229008
sg12
F76.0
sg13
F0.3838383838383838
ssg30
(dp541
g11
F0.000916030534351145
sg12
F3.0
sg13
F0.015151515151515152
ssg18
(dp542
g11
F0.010381679389312977
sg12
F34.0
sg13
F0.1717171717171717
ssg20
(dp543
g11
F0.000916030534351145
sg12
F3.0
sg13
F0.015151515151515152
ssg22
(dp544
g11
F0.01099236641221374
sg12
F36.0
sg13
F0.18181818181818182
ssssS'TabTimes'
p545
(dp546
g3
I0
sg4
I200
sg5
I2563
sg6
I100
sg7
(dp547
g9
(dp548
g11
F0.03901677721420211
sg12
F100.0
sg13
F0.5
ssg14
(dp549
g11
F0.0046820132657042525
sg12
F12.0
sg13
F0.06
ssg16
(dp550
g11
F0.015606710885680842
sg12
F40.0
sg13
F0.2
ssg30
(dp551
g11
F0.0003901677721420211
sg12
F1.0
sg13
F0.005
ssg18
(dp552
g11
F0.006632852126414358
sg12
F17.0
sg13
F0.085
ssg20
(dp553
g11
F0.0003901677721420211
sg12
F1.0
sg13
F0.005
ssg34
(dp554
g11
F0.0027311744049941474
sg12
F7.0
sg13
F0.035
ssg22
(dp555
g11
F0.008583690987124463
sg12
F22.0
sg13
F0.11
ssssVhamzaz
p556
(dp557
g329
I1
sg330
I26
sg331
I413
sg332
I11
sg333
(dp558
g335
(dp559
g337
F0.026634382566585957
sg338
F11.0
sg339
F0.4230769230769231
ssg340
(dp560
g337
F0.002421307506053269
sg338
F1.0
sg339
F0.038461538461538464
ssg342
(dp561
g337
F0.012106537530266344
sg338
F5.0
sg339
F0.19230769230769232
ssg344
(dp562
g337
F0.002421307506053269
sg338
F1.0
sg339
F0.038461538461538464
ssg346
(dp563
g337
F0.002421307506053269
sg338
F1.0
sg339
F0.038461538461538464
ssg348
(dp564
g337
F0.002421307506053269
sg338
F1.0
sg339
F0.038461538461538464
ssg350
(dp565
g337
F0.002421307506053269
sg338
F1.0
sg339
F0.038461538461538464
ssg354
(dp566
g337
F0.002421307506053269
sg338
F1.0
sg339
F0.038461538461538464
ssssS'RealSexyCyborg'
p567
(dp568
g3
I0
sg4
I188
sg5
I3269
sg6
I125
sg7
(dp569
g9
(dp570
g11
F0.03823799327011319
sg12
F125.0
sg13
F0.6648936170212766
ssg14
(dp571
g11
F0.0015295197308045274
sg12
F5.0
sg13
F0.026595744680851064
ssg16
(dp572
g11
F0.01621290914652799
sg12
F53.0
sg13
F0.28191489361702127
ssg53
(dp573
g11
F0.001223615784643622
sg12
F4.0
sg13
F0.02127659574468085
ssg30
(dp574
g11
F0.0015295197308045274
sg12
F5.0
sg13
F0.026595744680851064
ssg18
(dp575
g11
F0.007953502600183543
sg12
F26.0
sg13
F0.13829787234042554
ssg20
(dp576
g11
F0.0003059039461609055
sg12
F1.0
sg13
F0.005319148936170213
ssg34
(dp577
g11
F0.0003059039461609055
sg12
F1.0
sg13
F0.005319148936170213
ssg22
(dp578
g11
F0.009177118384827165
sg12
F30.0
sg13
F0.1595744680851064
ssssS'RPiSpy'
p579
(dp580
g3
I0
sg4
I198
sg5
I3428
sg6
I109
sg7
(dp581
g9
(dp582
g11
F0.03179696616102684
sg12
F109.0
sg13
F0.5505050505050505
ssg14
(dp583
g11
F0.004959159859976663
sg12
F17.0
sg13
F0.08585858585858586
ssg16
(dp584
g11
F0.014294049008168028
sg12
F49.0
sg13
F0.2474747474747475
ssg18
(dp585
g11
F0.005250875145857643
sg12
F18.0
sg13
F0.09090909090909091
ssg20
(dp586
g11
F0.0008751458576429405
sg12
F3.0
sg13
F0.015151515151515152
ssg22
(dp587
g11
F0.006126021003500583
sg12
F21.0
sg13
F0.10606060606060606
ssg37
(dp588
g11
F0.00029171528588098014
sg12
F1.0
sg13
F0.005050505050505051
ssssS'arduinoblog'
p589
(dp590
g3
I0
sg4
I199
sg5
I3906
sg6
I505
sg7
(dp591
g9
(dp592
g11
F0.12928827444956478
sg12
F505.0
sg13
F2.5376884422110555
ssg14
(dp593
g11
F0.010752688172043012
sg12
F42.0
sg13
F0.21105527638190955
ssg16
(dp594
g11
F0.05504352278545827
sg12
F215.0
sg13
F1.0804020100502512
ssg53
(dp595
g11
F0.002560163850486431
sg12
F10.0
sg13
F0.05025125628140704
ssg30
(dp596
g11
F0.005120327700972862
sg12
F20.0
sg13
F0.10050251256281408
ssg18
(dp597
g11
F0.023297491039426525
sg12
F91.0
sg13
F0.457286432160804
ssg34
(dp598
g11
F0.006144393241167435
sg12
F24.0
sg13
F0.12060301507537688
ssg22
(dp599
g11
F0.02636968766001024
sg12
F103.0
sg13
F0.5175879396984925
ssssS'seeedstudio'
p600
(dp601
g3
I0
sg4
I177
sg5
I2110
sg6
I84
sg7
(dp602
g9
(dp603
g11
F0.03981042654028436
sg12
F84.0
sg13
F0.4745762711864407
ssg14
(dp604
g11
F0.0009478672985781991
sg12
F2.0
sg13
F0.011299435028248588
ssg16
(dp605
g11
F0.02037914691943128
sg12
F43.0
sg13
F0.24293785310734464
ssg53
(dp606
g11
F0.00047393364928909954
sg12
F1.0
sg13
F0.005649717514124294
ssg30
(dp607
g11
F0.004739336492890996
sg12
F10.0
sg13
F0.05649717514124294
ssg18
(dp608
g11
F0.005213270142180095
sg12
F11.0
sg13
F0.062146892655367235
ssg20
(dp609
g11
F0.0014218009478672985
sg12
F3.0
sg13
F0.01694915254237288
ssg34
(dp610
g11
F0.00047393364928909954
sg12
F1.0
sg13
F0.005649717514124294
ssg22
(dp611
g11
F0.006161137440758294
sg12
F13.0
sg13
F0.07344632768361582
ssssVbulentozel
p612
(dp613
S'source'
p614
I1
sS'ntweets'
p615
I30
sS'nwords'
p616
I286
sS'nmappings'
p617
I7
sS'scores'
p618
(dp619
S'1'
p620
(dp621
S'per_word'
p622
F0.0034965034965034965
sS'raw'
p623
F1.0
sS'per_tweet'
p624
F0.03333333333333333
ssS'0'
p625
(dp626
g622
F0.017482517482517484
sg623
F5.0
sg624
F0.16666666666666666
ssS'all'
p627
(dp628
g622
F0.024475524475524476
sg623
F7.0
sg624
F0.23333333333333334
ssS'6'
p629
(dp630
g622
F0.0034965034965034965
sg623
F1.0
sg624
F0.03333333333333333
ssssS'3DHubs'
p631
(dp632
g3
I0
sg4
I195
sg5
I3339
sg6
I133
sg7
(dp633
g9
(dp634
g11
F0.039832285115303984
sg12
F133.0
sg13
F0.6820512820512821
ssg14
(dp635
g11
F0.0017969451931716084
sg12
F6.0
sg13
F0.03076923076923077
ssg16
(dp636
g11
F0.020365378855944895
sg12
F68.0
sg13
F0.3487179487179487
ssg53
(dp637
g11
F0.0002994908655286014
sg12
F1.0
sg13
F0.005128205128205128
ssg30
(dp638
g11
F0.002395926924228811
sg12
F8.0
sg13
F0.041025641025641026
ssg18
(dp639
g11
F0.004492362982929021
sg12
F15.0
sg13
F0.07692307692307693
ssg20
(dp640
g11
F0.0011979634621144056
sg12
F4.0
sg13
F0.020512820512820513
ssg34
(dp641
g11
F0.0008984725965858042
sg12
F3.0
sg13
F0.015384615384615385
ssg22
(dp642
g11
F0.008086253369272238
sg12
F27.0
sg13
F0.13846153846153847
ssg37
(dp643
g11
F0.0002994908655286014
sg12
F1.0
sg13
F0.005128205128205128
ssssS'3DPrintingFans'
p644
(dp645
g3
I0
sg4
I200
sg5
I2623
sg6
I155
sg7
(dp646
g9
(dp647
g11
F0.05909264201296226
sg12
F155.0
sg13
F0.775
ssg14
(dp648
g11
F0.002287457110179184
sg12
F6.0
sg13
F0.03
ssg16
(dp649
g11
F0.030880670987418986
sg12
F81.0
sg13
F0.405
ssg30
(dp650
g11
F0.001143728555089592
sg12
F3.0
sg13
F0.015
ssg18
(dp651
g11
F0.0072436141822340835
sg12
F19.0
sg13
F0.095
ssg20
(dp652
g11
F0.001143728555089592
sg12
F3.0
sg13
F0.015
ssg34
(dp653
g11
F0.002287457110179184
sg12
F6.0
sg13
F0.03
ssg22
(dp654
g11
F0.013724742661075104
sg12
F36.0
sg13
F0.18
ssg37
(dp655
g11
F0.0003812428516965307
sg12
F1.0
sg13
F0.005
ssssS'element14'
p656
(dp657
g3
I0
sg4
I200
sg5
I3266
sg6
I216
sg7
(dp658
g9
(dp659
g11
F0.06613594611145132
sg12
F216.0
sg13
F1.08
ssg14
(dp660
g11
F0.002449479485609308
sg12
F8.0
sg13
F0.04
ssg16
(dp661
g11
F0.030006123698714023
sg12
F98.0
sg13
F0.49
ssg53
(dp662
g11
F0.00612369871402327
sg12
F20.0
sg13
F0.1
ssg30
(dp663
g11
F0.00612369871402327
sg12
F20.0
sg13
F0.1
ssg18
(dp664
g11
F0.007348438456827924
sg12
F24.0
sg13
F0.12
ssg20
(dp665
g11
F0.000612369871402327
sg12
F2.0
sg13
F0.01
ssg34
(dp666
g11
F0.0003061849357011635
sg12
F1.0
sg13
F0.005
ssg22
(dp667
g11
F0.012859767299448868
sg12
F42.0
sg13
F0.21
ssg37
(dp668
g11
F0.0003061849357011635
sg12
F1.0
sg13
F0.005
ssssS'sparkfun'
p669
(dp670
g3
I0
sg4
I194
sg5
I3708
sg6
I192
sg7
(dp671
g9
(dp672
g11
F0.05177993527508091
sg12
F192.0
sg13
F0.9896907216494846
ssg14
(dp673
g11
F0.0037756202804746495
sg12
F14.0
sg13
F0.07216494845360824
ssg16
(dp674
g11
F0.02238403451995685
sg12
F83.0
sg13
F0.42783505154639173
ssg53
(dp675
g11
F0.0010787486515641855
sg12
F4.0
sg13
F0.020618556701030927
ssg30
(dp676
g11
F0.0016181229773462784
sg12
F6.0
sg13
F0.030927835051546393
ssg18
(dp677
g11
F0.009439050701186624
sg12
F35.0
sg13
F0.18041237113402062
ssg20
(dp678
g11
F0.0018878101402373248
sg12
F7.0
sg13
F0.03608247422680412
ssg34
(dp679
g11
F0.0005393743257820927
sg12
F2.0
sg13
F0.010309278350515464
ssg22
(dp680
g11
F0.010787486515641856
sg12
F40.0
sg13
F0.20618556701030927
ssg37
(dp681
g11
F0.00026968716289104636
sg12
F1.0
sg13
F0.005154639175257732
ssssS'arduino'
p682
(dp683
g3
I0
sg4
I192
sg5
I2659
sg6
I166
sg7
(dp684
g9
(dp685
g11
F0.06242948476871004
sg12
F166.0
sg13
F0.8645833333333334
ssg14
(dp686
g11
F0.0052651372696502444
sg12
F14.0
sg13
F0.07291666666666667
ssg16
(dp687
g11
F0.028958254983076345
sg12
F77.0
sg13
F0.4010416666666667
ssg53
(dp688
g11
F0.000376081233546446
sg12
F1.0
sg13
F0.005208333333333333
ssg30
(dp689
g11
F0.000376081233546446
sg12
F1.0
sg13
F0.005208333333333333
ssg18
(dp690
g11
F0.012034599473486273
sg12
F32.0
sg13
F0.16666666666666666
ssg20
(dp691
g11
F0.000752162467092892
sg12
F2.0
sg13
F0.010416666666666666
ssg22
(dp692
g11
F0.014667168108311396
sg12
F39.0
sg13
F0.203125
ssssS'3d_printers'
p693
(dp694
g3
I0
sg4
I196
sg5
I2770
sg6
I124
sg7
(dp695
g9
(dp696
g11
F0.044765342960288806
sg12
F124.0
sg13
F0.6326530612244898
ssg14
(dp697
g11
F0.00036101083032490973
sg12
F1.0
sg13
F0.00510204081632653
ssg16
(dp698
g11
F0.019855595667870037
sg12
F55.0
sg13
F0.28061224489795916
ssg53
(dp699
g11
F0.00036101083032490973
sg12
F1.0
sg13
F0.00510204081632653
ssg30
(dp700
g11
F0.0010830324909747292
sg12
F3.0
sg13
F0.015306122448979591
ssg18
(dp701
g11
F0.009025270758122744
sg12
F25.0
sg13
F0.12755102040816327
ssg34
(dp702
g11
F0.003249097472924188
sg12
F9.0
sg13
F0.04591836734693878
ssg22
(dp703
g11
F0.010108303249097473
sg12
F28.0
sg13
F0.14285714285714285
ssg37
(dp704
g11
F0.0007220216606498195
sg12
F2.0
sg13
F0.01020408163265306
ssssS'makerbot'
p705
(dp706
g3
I0
sg4
I199
sg5
I3547
sg6
I359
sg7
(dp707
g9
(dp708
g11
F0.10121229207781224
sg12
F359.0
sg13
F1.8040201005025125
ssg14
(dp709
g11
F0.0008457851705666761
sg12
F3.0
sg13
F0.01507537688442211
ssg16
(dp710
g11
F0.0459543276007894
sg12
F163.0
sg13
F0.8190954773869347
ssg53
(dp711
g11
F0.000281928390188892
sg12
F1.0
sg13
F0.005025125628140704
ssg30
(dp712
g11
F0.002255427121511136
sg12
F8.0
sg13
F0.04020100502512563
ssg18
(dp713
g11
F0.021144629264166902
sg12
F75.0
sg13
F0.3768844221105528
ssg20
(dp714
g11
F0.000563856780377784
sg12
F2.0
sg13
F0.010050251256281407
ssg34
(dp715
g11
F0.0008457851705666761
sg12
F3.0
sg13
F0.01507537688442211
ssg22
(dp716
g11
F0.02791091062870031
sg12
F99.0
sg13
F0.49748743718592964
ssg37
(dp717
g11
F0.00140964195094446
sg12
F5.0
sg13
F0.02512562814070352
ssssS'CodeClub'
p718
(dp719
g3
I0
sg4
I198
sg5
I3905
sg6
I175
sg7
(dp720
g9
(dp721
g11
F0.04481434058898848
sg12
F175.0
sg13
F0.8838383838383839
ssg14
(dp722
g11
F0.0028169014084507044
sg12
F11.0
sg13
F0.05555555555555555
ssg16
(dp723
g11
F0.022023047375160053
sg12
F86.0
sg13
F0.43434343434343436
ssg53
(dp724
g11
F0.00204865556978233
sg12
F8.0
sg13
F0.04040404040404041
ssg30
(dp725
g11
F0.006145966709346991
sg12
F24.0
sg13
F0.12121212121212122
ssg18
(dp726
g11
F0.005121638924455826
sg12
F20.0
sg13
F0.10101010101010101
ssg20
(dp727
g11
F0.00025608194622279127
sg12
F1.0
sg13
F0.005050505050505051
ssg22
(dp728
g11
F0.006402048655569782
sg12
F25.0
sg13
F0.12626262626262627
ssssS'MakerShed'
p729
(dp730
g3
I0
sg4
I199
sg5
I2885
sg6
I176
sg7
(dp731
g9
(dp732
g11
F0.0610051993067591
sg12
F176.0
sg13
F0.8844221105527639
ssg14
(dp733
g11
F0.0024263431542461003
sg12
F7.0
sg13
F0.035175879396984924
ssg16
(dp734
g11
F0.025649913344887348
sg12
F74.0
sg13
F0.37185929648241206
ssg53
(dp735
g11
F0.0010398613518197574
sg12
F3.0
sg13
F0.01507537688442211
ssg30
(dp736
g11
F0.003119584055459272
sg12
F9.0
sg13
F0.04522613065326633
ssg18
(dp737
g11
F0.01386481802426343
sg12
F40.0
sg13
F0.20100502512562815
ssg22
(dp738
g11
F0.01490467937608319
sg12
F43.0
sg13
F0.21608040201005024
ssssVmaker
p739
(dp740
S'scores'
p741
(dp742
S'all'
p743
(dp744
S'per_word'
p745
F0.11484502446982056
sS'raw'
p746
F352.0
sS'per_tweet'
p747
F1.7959183673469388
ssS'1'
p748
(dp749
g745
F0.0013050570962479609
sg746
F4.0
sg747
F0.02040816326530612
ssS'0'
p750
(dp751
g745
F0.04861337683523654
sg746
F149.0
sg747
F0.7602040816326531
ssS'3'
p752
(dp753
g745
F0.0006525285481239804
sg746
F2.0
sg747
F0.01020408163265306
ssS'2'
p754
(dp755
g745
F0.003915171288743882
sg746
F12.0
sg747
F0.061224489795918366
ssS'5'
p756
(dp757
g745
F0.02838499184339315
sg746
F87.0
sg747
F0.44387755102040816
ssS'4'
p758
(dp759
g745
F0.0003262642740619902
sg746
F1.0
sg747
F0.00510204081632653
ssS'7'
p760
(dp761
g745
F0.0006525285481239804
sg746
F2.0
sg747
F0.01020408163265306
ssS'6'
p762
(dp763
g745
F0.03099510603588907
sg746
F95.0
sg747
F0.4846938775510204
sssS'source'
p764
I1
sS'ntweets'
p765
I196
sS'nmappings'
p766
I352
sS'nwords'
p767
I3065
ss.