(dp0
S'ThePiHut'
p1
(dp2
S'scores'
p3
(dp4
S'all'
p5
(dp6
S'per_word'
p7
F0.0233843537414966
sS'raw'
p8
F55.0
sS'per_tweet'
p9
F0.2925531914893617
ssS'1'
p10
(dp11
g7
F0.005952380952380952
sg8
F14.0
sg9
F0.07446808510638298
ssS'0'
p12
(dp13
g7
F0.011054421768707483
sg8
F26.0
sg9
F0.13829787234042554
ssS'5'
p14
(dp15
g7
F0.002551020408163265
sg8
F6.0
sg9
F0.031914893617021274
ssS'4'
p16
(dp17
g7
F0.00042517006802721087
sg8
F1.0
sg9
F0.005319148936170213
ssS'6'
p18
(dp19
g7
F0.003401360544217687
sg8
F8.0
sg9
F0.0425531914893617
sssS'source'
p20
I0
sS'ntweets'
p21
I188
sS'nmappings'
p22
I55
sS'nwords'
p23
I2352
ssS'My3DPrinting'
p24
(dp25
g3
(dp26
g5
(dp27
g7
F0.060240963855421686
sg8
F150.0
sg9
F0.7653061224489796
ssg10
(dp28
g7
F0.0036144578313253013
sg8
F9.0
sg9
F0.04591836734693878
ssg12
(dp29
g7
F0.03132530120481928
sg8
F78.0
sg9
F0.3979591836734694
ssS'2'
p30
(dp31
g7
F0.0012048192771084338
sg8
F3.0
sg9
F0.015306122448979591
ssg14
(dp32
g7
F0.006827309236947791
sg8
F17.0
sg9
F0.08673469387755102
ssg16
(dp33
g7
F0.0008032128514056225
sg8
F2.0
sg9
F0.01020408163265306
ssS'7'
p34
(dp35
g7
F0.002008032128514056
sg8
F5.0
sg9
F0.025510204081632654
ssg18
(dp36
g7
F0.01285140562248996
sg8
F32.0
sg9
F0.16326530612244897
ssS'8'
p37
(dp38
g7
F0.001606425702811245
sg8
F4.0
sg9
F0.02040816326530612
sssg20
I0
sg21
I196
sg22
I150
sg23
I2490
ssS'3dsystems'
p39
(dp40
g3
(dp41
g5
(dp42
g7
F0.058335891925084433
sg8
F190.0
sg9
F0.9693877551020408
ssg10
(dp43
g7
F0.002456248081056187
sg8
F8.0
sg9
F0.04081632653061224
ssg12
(dp44
g7
F0.03131716303346638
sg8
F102.0
sg9
F0.5204081632653061
ssg30
(dp45
g7
F0.0006140620202640467
sg8
F2.0
sg9
F0.01020408163265306
ssg14
(dp46
g7
F0.00828983727356463
sg8
F27.0
sg9
F0.1377551020408163
ssg16
(dp47
g7
F0.00030703101013202335
sg8
F1.0
sg9
F0.00510204081632653
ssg34
(dp48
g7
F0.00368437212158428
sg8
F12.0
sg9
F0.061224489795918366
ssg18
(dp49
g7
F0.011360147374884864
sg8
F37.0
sg9
F0.18877551020408162
ssg37
(dp50
g7
F0.00030703101013202335
sg8
F1.0
sg9
F0.00510204081632653
sssg20
I0
sg21
I196
sg22
I190
sg23
I3257
ssS'lifehacker'
p51
(dp52
g3
(dp53
g5
(dp54
g7
F0.03774856757667678
sg8
F112.0
sg9
F0.56
ssg10
(dp55
g7
F0.0006740815638692282
sg8
F2.0
sg9
F0.01
ssg12
(dp56
g7
F0.015503875968992248
sg8
F46.0
sg9
F0.23
ssg30
(dp57
g7
F0.0006740815638692282
sg8
F2.0
sg9
F0.01
ssg14
(dp58
g7
F0.010111223458038422
sg8
F30.0
sg9
F0.15
ssg16
(dp59
g7
F0.0010111223458038423
sg8
F3.0
sg9
F0.015
ssg18
(dp60
g7
F0.00977418267610381
sg8
F29.0
sg9
F0.145
sssg20
I0
sg21
I200
sg22
I112
sg23
I2967
ssS'3DPrintGirl'
p61
(dp62
g3
(dp63
g5
(dp64
g7
F0.06112664802237315
sg8
F153.0
sg9
F0.7806122448979592
ssg10
(dp65
g7
F0.003595685177786656
sg8
F9.0
sg9
F0.04591836734693878
ssg12
(dp66
g7
F0.03196164602477027
sg8
F80.0
sg9
F0.40816326530612246
ssg30
(dp67
g7
F0.0011985617259288853
sg8
F3.0
sg9
F0.015306122448979591
ssg14
(dp68
g7
F0.0067918497802636835
sg8
F17.0
sg9
F0.08673469387755102
ssg16
(dp69
g7
F0.0007990411506192569
sg8
F2.0
sg9
F0.01020408163265306
ssg34
(dp70
g7
F0.001997602876548142
sg8
F5.0
sg9
F0.025510204081632654
ssg18
(dp71
g7
F0.013184178985217739
sg8
F33.0
sg9
F0.1683673469387755
ssg37
(dp72
g7
F0.0015980823012385138
sg8
F4.0
sg9
F0.02040816326530612
sssg20
I0
sg21
I196
sg22
I153
sg23
I2503
ssS'dangerousproto'
p73
(dp74
g3
(dp75
g5
(dp76
g7
F0.08712871287128712
sg8
F132.0
sg9
F0.7457627118644068
ssg10
(dp77
g7
F0.026402640264026403
sg8
F40.0
sg9
F0.22598870056497175
ssg12
(dp78
g7
F0.0462046204620462
sg8
F70.0
sg9
F0.3954802259887006
ssg30
(dp79
g7
F0.0006600660066006601
sg8
F1.0
sg9
F0.005649717514124294
ssg14
(dp80
g7
F0.005280528052805281
sg8
F8.0
sg9
F0.04519774011299435
ssg18
(dp81
g7
F0.008580858085808581
sg8
F13.0
sg9
F0.07344632768361582
sssg20
I0
sg21
I177
sg22
I132
sg23
I1515
ssS'pimoroni'
p82
(dp83
g3
(dp84
g5
(dp85
g7
F0.01961459050240881
sg8
F57.0
sg9
F0.296875
ssg10
(dp86
g7
F0.0017205781142463868
sg8
F5.0
sg9
F0.026041666666666668
ssg12
(dp87
g7
F0.009291121816930488
sg8
F27.0
sg9
F0.140625
ssS'3'
p88
(dp89
g7
F0.00034411562284927734
sg8
F1.0
sg9
F0.005208333333333333
ssg30
(dp90
g7
F0.0006882312456985547
sg8
F2.0
sg9
F0.010416666666666666
ssg14
(dp91
g7
F0.0034411562284927736
sg8
F10.0
sg9
F0.052083333333333336
ssg16
(dp92
g7
F0.00034411562284927734
sg8
F1.0
sg9
F0.005208333333333333
ssg34
(dp93
g7
F0.00034411562284927734
sg8
F1.0
sg9
F0.005208333333333333
ssg18
(dp94
g7
F0.0034411562284927736
sg8
F10.0
sg9
F0.052083333333333336
sssg20
I0
sg21
I192
sg22
I57
sg23
I2906
ssS'makerfaire'
p95
(dp96
g3
(dp97
g5
(dp98
g7
F0.08347646856750257
sg8
F243.0
sg9
F1.2525773195876289
ssg10
(dp99
g7
F0.0027481964960494676
sg8
F8.0
sg9
F0.041237113402061855
ssg12
(dp100
g7
F0.034352456200618345
sg8
F100.0
sg9
F0.5154639175257731
ssg88
(dp101
g7
F0.0010305736860185502
sg8
F3.0
sg9
F0.015463917525773196
ssg30
(dp102
g7
F0.0027481964960494676
sg8
F8.0
sg9
F0.041237113402061855
ssg14
(dp103
g7
F0.02026794915836482
sg8
F59.0
sg9
F0.30412371134020616
ssg18
(dp104
g7
F0.022329096530401923
sg8
F65.0
sg9
F0.33505154639175255
sssg20
I0
sg21
I194
sg22
I243
sg23
I2911
ssS'shapeways'
p105
(dp106
g3
(dp107
g5
(dp108
g7
F0.06307583274273565
sg8
F178.0
sg9
F0.9175257731958762
ssg10
(dp109
g7
F0.002126151665485471
sg8
F6.0
sg9
F0.030927835051546393
ssg12
(dp110
g7
F0.032955350815024806
sg8
F93.0
sg9
F0.4793814432989691
ssg88
(dp111
g7
F0.002834868887313962
sg8
F8.0
sg9
F0.041237113402061855
ssg30
(dp112
g7
F0.002834868887313962
sg8
F8.0
sg9
F0.041237113402061855
ssg14
(dp113
g7
F0.009213323883770375
sg8
F26.0
sg9
F0.13402061855670103
ssg16
(dp114
g7
F0.001771793054571226
sg8
F5.0
sg9
F0.02577319587628866
ssg34
(dp115
g7
F0.00035435861091424523
sg8
F1.0
sg9
F0.005154639175257732
ssg18
(dp116
g7
F0.010630758327427357
sg8
F30.0
sg9
F0.15463917525773196
ssg37
(dp117
g7
F0.00035435861091424523
sg8
F1.0
sg9
F0.005154639175257732
sssg20
I0
sg21
I194
sg22
I178
sg23
I2822
ssS'3dprintindustry'
p118
(dp119
g3
(dp120
g5
(dp121
g7
F0.046248382923673996
sg8
F143.0
sg9
F0.7447916666666666
ssg10
(dp122
g7
F0.002263906856403622
sg8
F7.0
sg9
F0.036458333333333336
ssg12
(dp123
g7
F0.018434670116429495
sg8
F57.0
sg9
F0.296875
ssg30
(dp124
g7
F0.000646830530401035
sg8
F2.0
sg9
F0.010416666666666666
ssg14
(dp125
g7
F0.005498059508408797
sg8
F17.0
sg9
F0.08854166666666667
ssg16
(dp126
g7
F0.000646830530401035
sg8
F2.0
sg9
F0.010416666666666666
ssg34
(dp127
g7
F0.01034928848641656
sg8
F32.0
sg9
F0.16666666666666666
ssg18
(dp128
g7
F0.008085381630012937
sg8
F25.0
sg9
F0.13020833333333334
ssg37
(dp129
g7
F0.0003234152652005175
sg8
F1.0
sg9
F0.005208333333333333
sssg20
I0
sg21
I192
sg22
I143
sg23
I3092
ssS'3dprinting3d'
p130
(dp131
g3
(dp132
g5
(dp133
g7
F0.04731412308786909
sg8
F133.0
sg9
F0.6683417085427136
ssg10
(dp134
g7
F0.0010672358591248667
sg8
F3.0
sg9
F0.01507537688442211
ssg12
(dp135
g7
F0.019565990750622556
sg8
F55.0
sg9
F0.27638190954773867
ssg30
(dp136
g7
F0.0003557452863749555
sg8
F1.0
sg9
F0.005025125628140704
ssg14
(dp137
g7
F0.008893632159373888
sg8
F25.0
sg9
F0.12562814070351758
ssg16
(dp138
g7
F0.000711490572749911
sg8
F2.0
sg9
F0.010050251256281407
ssg34
(dp139
g7
F0.0064034151547491995
sg8
F18.0
sg9
F0.09045226130653267
ssg18
(dp140
g7
F0.01031661330487371
sg8
F29.0
sg9
F0.1457286432160804
sssg20
I0
sg21
I199
sg22
I133
sg23
I2811
ssS'ModMyPi'
p141
(dp142
g3
(dp143
g5
(dp144
g7
F0.019454032005020397
sg8
F62.0
sg9
F0.31313131313131315
ssg10
(dp145
g7
F0.0021964229683087543
sg8
F7.0
sg9
F0.03535353535353535
ssg12
(dp146
g7
F0.008785691873235017
sg8
F28.0
sg9
F0.1414141414141414
ssg88
(dp147
g7
F0.00031377470975839345
sg8
F1.0
sg9
F0.005050505050505051
ssg30
(dp148
g7
F0.00031377470975839345
sg8
F1.0
sg9
F0.005050505050505051
ssg14
(dp149
g7
F0.0028239723878255413
sg8
F9.0
sg9
F0.045454545454545456
ssg34
(dp150
g7
F0.00031377470975839345
sg8
F1.0
sg9
F0.005050505050505051
ssg18
(dp151
g7
F0.004392845936617509
sg8
F14.0
sg9
F0.0707070707070707
ssg37
(dp152
g7
F0.00031377470975839345
sg8
F1.0
sg9
F0.005050505050505051
sssg20
I0
sg21
I198
sg22
I62
sg23
I3187
ssS'hackaday'
p153
(dp154
g3
(dp155
g5
(dp156
g7
F0.05789235639981909
sg8
F128.0
sg9
F0.6530612244897959
ssg10
(dp157
g7
F0.007236544549977386
sg8
F16.0
sg9
F0.08163265306122448
ssg12
(dp158
g7
F0.02939846223428313
sg8
F65.0
sg9
F0.33163265306122447
ssg30
(dp159
g7
F0.0009045680687471732
sg8
F2.0
sg9
F0.01020408163265306
ssg14
(dp160
g7
F0.0067842605156037995
sg8
F15.0
sg9
F0.07653061224489796
ssg16
(dp161
g7
F0.0027137042062415195
sg8
F6.0
sg9
F0.030612244897959183
ssg34
(dp162
g7
F0.0009045680687471732
sg8
F2.0
sg9
F0.01020408163265306
ssg18
(dp163
g7
F0.008593396653098146
sg8
F19.0
sg9
F0.09693877551020408
ssg37
(dp164
g7
F0.0013568521031207597
sg8
F3.0
sg9
F0.015306122448979591
sssg20
I0
sg21
I196
sg22
I128
sg23
I2211
ssVBarackObama
p165
(dp166
S'source'
p167
I1
sS'ntweets'
p168
I198
sS'nwords'
p169
I3364
sS'nmappings'
p170
I151
sS'scores'
p171
(dp172
S'all'
p173
(dp174
S'per_word'
p175
F0.04488703923900119
sS'raw'
p176
F151.0
sS'per_tweet'
p177
F0.7626262626262627
ssS'1'
p178
(dp179
g175
F0.0032699167657550534
sg176
F11.0
sg177
F0.05555555555555555
ssS'0'
p180
(dp181
g175
F0.021105826397146255
sg176
F71.0
sg177
F0.35858585858585856
ssS'3'
p182
(dp183
g175
F0.0008917954815695601
sg176
F3.0
sg177
F0.015151515151515152
ssS'2'
p184
(dp185
g175
F0.0017835909631391202
sg176
F6.0
sg177
F0.030303030303030304
ssS'5'
p186
(dp187
g175
F0.00267538644470868
sg176
F9.0
sg177
F0.045454545454545456
ssS'4'
p188
(dp189
g175
F0.00535077288941736
sg176
F18.0
sg177
F0.09090909090909091
ssS'7'
p190
(dp191
g175
F0.00029726516052318666
sg176
F1.0
sg177
F0.005050505050505051
ssS'6'
p192
(dp193
g175
F0.008620689655172414
sg176
F29.0
sg177
F0.14646464646464646
ssS'8'
p194
(dp195
g175
F0.0008917954815695601
sg176
F3.0
sg177
F0.015151515151515152
ssssS'MicrochipMakes'
p196
(dp197
g3
(dp198
g5
(dp199
g7
F0.04927438407019912
sg8
F146.0
sg9
F0.7411167512690355
ssg10
(dp200
g7
F0.0033749578130273373
sg8
F10.0
sg9
F0.050761421319796954
ssg12
(dp201
g7
F0.020587242659466758
sg8
F61.0
sg9
F0.3096446700507614
ssg88
(dp202
g7
F0.0003374957813027337
sg8
F1.0
sg9
F0.005076142131979695
ssg30
(dp203
g7
F0.0003374957813027337
sg8
F1.0
sg9
F0.005076142131979695
ssg14
(dp204
g7
F0.012149848126898413
sg8
F36.0
sg9
F0.18274111675126903
ssg16
(dp205
g7
F0.0003374957813027337
sg8
F1.0
sg9
F0.005076142131979695
ssg18
(dp206
g7
F0.012149848126898413
sg8
F36.0
sg9
F0.18274111675126903
sssg20
I0
sg21
I197
sg22
I146
sg23
I2963
ssS'adafruit'
p207
(dp208
g3
(dp209
g5
(dp210
g7
F0.04342532467532467
sg8
F107.0
sg9
F0.5721925133689839
ssg10
(dp211
g7
F0.002840909090909091
sg8
F7.0
sg9
F0.0374331550802139
ssg12
(dp212
g7
F0.018668831168831168
sg8
F46.0
sg9
F0.24598930481283424
ssg88
(dp213
g7
F0.0008116883116883117
sg8
F2.0
sg9
F0.0106951871657754
ssg30
(dp214
g7
F0.002029220779220779
sg8
F5.0
sg9
F0.026737967914438502
ssg14
(dp215
g7
F0.008522727272727272
sg8
F21.0
sg9
F0.11229946524064172
ssg16
(dp216
g7
F0.00040584415584415587
sg8
F1.0
sg9
F0.0053475935828877
ssg34
(dp217
g7
F0.00040584415584415587
sg8
F1.0
sg9
F0.0053475935828877
ssg18
(dp218
g7
F0.00974025974025974
sg8
F24.0
sg9
F0.12834224598930483
sssg20
I0
sg21
I187
sg22
I107
sg23
I2464
ssS'3dersorg'
p219
(dp220
g3
(dp221
g5
(dp222
g7
F0.05901015228426396
sg8
F186.0
sg9
F0.9441624365482234
ssg10
(dp223
g7
F0.0031725888324873096
sg8
F10.0
sg9
F0.050761421319796954
ssg12
(dp224
g7
F0.02728426395939086
sg8
F86.0
sg9
F0.4365482233502538
ssg30
(dp225
g7
F0.0006345177664974619
sg8
F2.0
sg9
F0.01015228426395939
ssg14
(dp226
g7
F0.010469543147208122
sg8
F33.0
sg9
F0.16751269035532995
ssg16
(dp227
g7
F0.0006345177664974619
sg8
F2.0
sg9
F0.01015228426395939
ssg34
(dp228
g7
F0.0019035532994923859
sg8
F6.0
sg9
F0.030456852791878174
ssg18
(dp229
g7
F0.014911167512690355
sg8
F47.0
sg9
F0.23857868020304568
sssg20
I0
sg21
I197
sg22
I186
sg23
I3152
ssS'3dprintingcom'
p230
(dp231
g3
(dp232
g5
(dp233
g7
F0.046399406087602076
sg8
F125.0
sg9
F0.6410256410256411
ssg10
(dp234
g7
F0.002969561989606533
sg8
F8.0
sg9
F0.041025641025641026
ssg12
(dp235
g7
F0.022271714922048998
sg8
F60.0
sg9
F0.3076923076923077
ssg14
(dp236
g7
F0.005567928730512249
sg8
F15.0
sg9
F0.07692307692307693
ssg16
(dp237
g7
F0.0007423904974016332
sg8
F2.0
sg9
F0.010256410256410256
ssg34
(dp238
g7
F0.002969561989606533
sg8
F8.0
sg9
F0.041025641025641026
ssg18
(dp239
g7
F0.011878247958426132
sg8
F32.0
sg9
F0.1641025641025641
sssg20
I0
sg21
I195
sg22
I125
sg23
I2694
ssS'htpc_guides'
p240
(dp241
g3
(dp242
g10
(dp243
g7
F0.004750593824228029
sg8
F8.0
sg9
F0.050314465408805034
ssg12
(dp244
g7
F0.019596199524940617
sg8
F33.0
sg9
F0.20754716981132076
ssg5
(dp245
g7
F0.040973871733966744
sg8
F69.0
sg9
F0.4339622641509434
ssg14
(dp246
g7
F0.012470308788598575
sg8
F21.0
sg9
F0.1320754716981132
ssg18
(dp247
g7
F0.004156769596199525
sg8
F7.0
sg9
F0.0440251572327044
sssg20
I0
sg21
I159
sg22
I69
sg23
I1684
ssS'ColorFabb'
p248
(dp249
g3
(dp250
g5
(dp251
g7
F0.03197953309881676
sg8
F100.0
sg9
F0.5376344086021505
ssg10
(dp252
g7
F0.0025583626479053407
sg8
F8.0
sg9
F0.043010752688172046
ssg12
(dp253
g7
F0.016629357211384713
sg8
F52.0
sg9
F0.27956989247311825
ssg30
(dp254
g7
F0.0003197953309881676
sg8
F1.0
sg9
F0.005376344086021506
ssg14
(dp255
g7
F0.004477134633834346
sg8
F14.0
sg9
F0.07526881720430108
ssg16
(dp256
g7
F0.0009593859929645027
sg8
F3.0
sg9
F0.016129032258064516
ssg34
(dp257
g7
F0.0009593859929645027
sg8
F3.0
sg9
F0.016129032258064516
ssg18
(dp258
g7
F0.005436520626798848
sg8
F17.0
sg9
F0.0913978494623656
ssg37
(dp259
g7
F0.0006395906619763352
sg8
F2.0
sg9
F0.010752688172043012
sssg20
I0
sg21
I186
sg22
I100
sg23
I3127
ssS'xKaliSec'
p260
(dp261
g3
(dp262
g5
(dp263
g7
F0.06148282097649186
sg8
F136.0
sg9
F0.7431693989071039
ssg10
(dp264
g7
F0.00406871609403255
sg8
F9.0
sg9
F0.04918032786885246
ssg12
(dp265
g7
F0.027124773960216998
sg8
F60.0
sg9
F0.32786885245901637
ssg14
(dp266
g7
F0.013562386980108499
sg8
F30.0
sg9
F0.16393442622950818
ssg34
(dp267
g7
F0.00135623869801085
sg8
F3.0
sg9
F0.01639344262295082
ssg18
(dp268
g7
F0.014918625678119348
sg8
F33.0
sg9
F0.18032786885245902
ssg37
(dp269
g7
F0.0004520795660036166
sg8
F1.0
sg9
F0.00546448087431694
sssg20
I0
sg21
I183
sg22
I136
sg23
I2212
ssS'make'
p270
(dp271
g3
(dp272
g5
(dp273
g7
F0.09319526627218935
sg8
F315.0
sg9
F1.6321243523316062
ssg10
(dp274
g7
F0.004142011834319527
sg8
F14.0
sg9
F0.07253886010362694
ssg12
(dp275
g7
F0.03757396449704142
sg8
F127.0
sg9
F0.6580310880829016
ssg88
(dp276
g7
F0.001183431952662722
sg8
F4.0
sg9
F0.02072538860103627
ssg30
(dp277
g7
F0.002366863905325444
sg8
F8.0
sg9
F0.04145077720207254
ssg14
(dp278
g7
F0.021893491124260357
sg8
F74.0
sg9
F0.38341968911917096
ssg16
(dp279
g7
F0.0008875739644970414
sg8
F3.0
sg9
F0.015544041450777202
ssg34
(dp280
g7
F0.0002958579881656805
sg8
F1.0
sg9
F0.0051813471502590676
ssg18
(dp281
g7
F0.0242603550295858
sg8
F82.0
sg9
F0.42487046632124353
ssg37
(dp282
g7
F0.000591715976331361
sg8
F2.0
sg9
F0.010362694300518135
sssg20
I0
sg21
I193
sg22
I315
sg23
I3380
ssS'Pi_Borg'
p283
(dp284
g3
(dp285
g5
(dp286
g7
F0.015782828282828284
sg8
F50.0
sg9
F0.25380710659898476
ssg10
(dp287
g7
F0.0006313131313131314
sg8
F2.0
sg9
F0.01015228426395939
ssg12
(dp288
g7
F0.00726010101010101
sg8
F23.0
sg9
F0.116751269035533
ssg88
(dp289
g7
F0.0006313131313131314
sg8
F2.0
sg9
F0.01015228426395939
ssg30
(dp290
g7
F0.000946969696969697
sg8
F3.0
sg9
F0.015228426395939087
ssg14
(dp291
g7
F0.002840909090909091
sg8
F9.0
sg9
F0.04568527918781726
ssg34
(dp292
g7
F0.0003156565656565657
sg8
F1.0
sg9
F0.005076142131979695
ssg18
(dp293
g7
F0.0031565656565656565
sg8
F10.0
sg9
F0.050761421319796954
sssg20
I0
sg21
I197
sg22
I50
sg23
I3168
ssS'instructables'
p294
(dp295
g3
(dp296
g5
(dp297
g7
F0.08011049723756906
sg8
F116.0
sg9
F0.6373626373626373
ssg12
(dp298
g7
F0.04350828729281768
sg8
F63.0
sg9
F0.34615384615384615
ssg30
(dp299
g7
F0.0006906077348066298
sg8
F1.0
sg9
F0.005494505494505495
ssg14
(dp300
g7
F0.014502762430939226
sg8
F21.0
sg9
F0.11538461538461539
ssg16
(dp301
g7
F0.003453038674033149
sg8
F5.0
sg9
F0.027472527472527472
ssg18
(dp302
g7
F0.017955801104972375
sg8
F26.0
sg9
F0.14285714285714285
sssg20
I0
sg21
I182
sg22
I116
sg23
I1448
ssS'linuxfoundation'
p303
(dp304
g3
(dp305
g5
(dp306
g7
F0.07375844842785777
sg8
F251.0
sg9
F1.2676767676767677
ssg10
(dp307
g7
F0.01616220981486923
sg8
F55.0
sg9
F0.2777777777777778
ssg12
(dp308
g7
F0.041727887158389654
sg8
F142.0
sg9
F0.7171717171717171
ssg88
(dp309
g7
F0.002644725242433147
sg8
F9.0
sg9
F0.045454545454545456
ssg30
(dp310
g7
F0.0029385836027034967
sg8
F10.0
sg9
F0.050505050505050504
ssg14
(dp311
g7
F0.0029385836027034967
sg8
F10.0
sg9
F0.050505050505050504
ssg16
(dp312
g7
F0.000881575080811049
sg8
F3.0
sg9
F0.015151515151515152
ssg34
(dp313
g7
F0.0011754334410813989
sg8
F4.0
sg9
F0.020202020202020204
ssg18
(dp314
g7
F0.004995592124595945
sg8
F17.0
sg9
F0.08585858585858586
ssg37
(dp315
g7
F0.0002938583602703497
sg8
F1.0
sg9
F0.005050505050505051
sssg20
I0
sg21
I198
sg22
I251
sg23
I3403
ssVBokehPlots
p316
(dp317
S'source'
p318
I1
sS'ntweets'
p319
I48
sS'nwords'
p320
I816
sS'nmappings'
p321
I32
sS'scores'
p322
(dp323
S'all'
p324
(dp325
S'per_word'
p326
F0.0392156862745098
sS'raw'
p327
F32.0
sS'per_tweet'
p328
F0.6666666666666666
ssS'1'
p329
(dp330
g326
F0.0024509803921568627
sg327
F2.0
sg328
F0.041666666666666664
ssS'0'
p331
(dp332
g326
F0.01715686274509804
sg327
F14.0
sg328
F0.2916666666666667
ssS'2'
p333
(dp334
g326
F0.0024509803921568627
sg327
F2.0
sg328
F0.041666666666666664
ssS'5'
p335
(dp336
g326
F0.007352941176470588
sg327
F6.0
sg328
F0.125
ssS'6'
p337
(dp338
g326
F0.00980392156862745
sg327
F8.0
sg328
F0.16666666666666666
ssssVbokeh
p339
(dp340
S'source'
p341
I1
sS'ntweets'
p342
I5
sS'nwords'
p343
I54
sS'nmappings'
p344
I0
sS'scores'
p345
(dp346
S'all'
p347
(dp348
S'per_word'
p349
F0.0
sS'raw'
p350
F0.0
sS'per_tweet'
p351
F0.0
ssssVBernieSanders
p352
(dp353
S'scores'
p354
(dp355
S'all'
p356
(dp357
S'per_word'
p358
F0.044444444444444446
sS'raw'
p359
F180.0
sS'per_tweet'
p360
F0.9
ssS'1'
p361
(dp362
g358
F0.0014814814814814814
sg359
F6.0
sg360
F0.03
ssS'0'
p363
(dp364
g358
F0.018765432098765432
sg359
F76.0
sg360
F0.38
ssS'3'
p365
(dp366
g358
F0.0034567901234567903
sg359
F14.0
sg360
F0.07
ssS'2'
p367
(dp368
g358
F0.002962962962962963
sg359
F12.0
sg360
F0.06
ssS'5'
p369
(dp370
g358
F0.004197530864197531
sg359
F17.0
sg360
F0.085
ssS'4'
p371
(dp372
g358
F0.0024691358024691358
sg359
F10.0
sg360
F0.05
ssS'7'
p373
(dp374
g358
F0.0009876543209876543
sg359
F4.0
sg360
F0.02
ssS'6'
p375
(dp376
g358
F0.007160493827160494
sg359
F29.0
sg360
F0.145
ssS'8'
p377
(dp378
g358
F0.002962962962962963
sg359
F12.0
sg360
F0.06
sssS'source'
p379
I1
sS'ntweets'
p380
I200
sS'nmappings'
p381
I180
sS'nwords'
p382
I4050
ssS'freetronics'
p383
(dp384
g3
(dp385
g5
(dp386
g7
F0.07261247040252565
sg8
F184.0
sg9
F0.989247311827957
ssg10
(dp387
g7
F0.028413575374901343
sg8
F72.0
sg9
F0.3870967741935484
ssg12
(dp388
g7
F0.03867403314917127
sg8
F98.0
sg9
F0.5268817204301075
ssg14
(dp389
g7
F0.0015785319652722968
sg8
F4.0
sg9
F0.021505376344086023
ssg16
(dp390
g7
F0.0011838989739542227
sg8
F3.0
sg9
F0.016129032258064516
ssg34
(dp391
g7
F0.0007892659826361484
sg8
F2.0
sg9
F0.010752688172043012
ssg18
(dp392
g7
F0.001973164956590371
sg8
F5.0
sg9
F0.026881720430107527
sssg20
I0
sg21
I186
sg22
I184
sg23
I2534
ssS'3DPrintingIt'
p393
(dp394
g3
(dp395
g5
(dp396
g7
F0.060024009603841535
sg8
F150.0
sg9
F0.7653061224489796
ssg10
(dp397
g7
F0.003601440576230492
sg8
F9.0
sg9
F0.04591836734693878
ssg12
(dp398
g7
F0.031212484993997598
sg8
F78.0
sg9
F0.3979591836734694
ssg30
(dp399
g7
F0.0012004801920768306
sg8
F3.0
sg9
F0.015306122448979591
ssg14
(dp400
g7
F0.006802721088435374
sg8
F17.0
sg9
F0.08673469387755102
ssg16
(dp401
g7
F0.0008003201280512205
sg8
F2.0
sg9
F0.01020408163265306
ssg34
(dp402
g7
F0.0020008003201280513
sg8
F5.0
sg9
F0.025510204081632654
ssg18
(dp403
g7
F0.012805122048819529
sg8
F32.0
sg9
F0.16326530612244897
ssg37
(dp404
g7
F0.001600640256102441
sg8
F4.0
sg9
F0.02040816326530612
sssg20
I0
sg21
I196
sg22
I150
sg23
I2499
ssS'androidcentral'
p405
(dp406
g3
(dp407
g5
(dp408
g7
F0.028326745718050064
sg8
F86.0
sg9
F0.4387755102040816
ssg10
(dp409
g7
F0.001976284584980237
sg8
F6.0
sg9
F0.030612244897959183
ssg12
(dp410
g7
F0.012187088274044796
sg8
F37.0
sg9
F0.18877551020408162
ssg30
(dp411
g7
F0.0013175230566534915
sg8
F4.0
sg9
F0.02040816326530612
ssg14
(dp412
g7
F0.004281949934123847
sg8
F13.0
sg9
F0.0663265306122449
ssg34
(dp413
g7
F0.00230566534914361
sg8
F7.0
sg9
F0.03571428571428571
ssg18
(dp414
g7
F0.005270092226613966
sg8
F16.0
sg9
F0.08163265306122448
ssg37
(dp415
g7
F0.0009881422924901185
sg8
F3.0
sg9
F0.015306122448979591
sssg20
I0
sg21
I196
sg22
I86
sg23
I3036
ssS'Ultimaker'
p416
(dp417
g3
(dp418
g5
(dp419
g7
F0.08383233532934131
sg8
F308.0
sg9
F1.5477386934673367
ssg10
(dp420
g7
F0.004082743603701687
sg8
F15.0
sg9
F0.07537688442211055
ssg12
(dp421
g7
F0.0391943385955362
sg8
F144.0
sg9
F0.7236180904522613
ssg88
(dp422
g7
F0.0013609145345672292
sg8
F5.0
sg9
F0.02512562814070352
ssg30
(dp423
g7
F0.002177463255307567
sg8
F8.0
sg9
F0.04020100502512563
ssg14
(dp424
g7
F0.015514425694066412
sg8
F57.0
sg9
F0.2864321608040201
ssg16
(dp425
g7
F0.0010887316276537834
sg8
F4.0
sg9
F0.020100502512562814
ssg34
(dp426
g7
F0.00027218290691344586
sg8
F1.0
sg9
F0.005025125628140704
ssg18
(dp427
g7
F0.01905280348394121
sg8
F70.0
sg9
F0.35175879396984927
ssg37
(dp428
g7
F0.0010887316276537834
sg8
F4.0
sg9
F0.020100502512562814
sssg20
I0
sg21
I199
sg22
I308
sg23
I3674
ssS'3dprinting'
p429
(dp430
g3
(dp431
g5
(dp432
g7
F0.04211911813096413
sg8
F128.0
sg9
F0.7071823204419889
ssg10
(dp433
g7
F0.0029615004935834156
sg8
F9.0
sg9
F0.049723756906077346
ssg12
(dp434
g7
F0.020072392234287594
sg8
F61.0
sg9
F0.3370165745856354
ssg30
(dp435
g7
F0.0006581112207963146
sg8
F2.0
sg9
F0.011049723756906077
ssg14
(dp436
g7
F0.005923000987166831
sg8
F18.0
sg9
F0.09944751381215469
ssg16
(dp437
g7
F0.0016452780519907865
sg8
F5.0
sg9
F0.027624309392265192
ssg34
(dp438
g7
F0.0016452780519907865
sg8
F5.0
sg9
F0.027624309392265192
ssg18
(dp439
g7
F0.008884501480750246
sg8
F27.0
sg9
F0.14917127071823205
ssg37
(dp440
g7
F0.0003290556103981573
sg8
F1.0
sg9
F0.0055248618784530384
sssg20
I0
sg21
I181
sg22
I128
sg23
I3039
ssS'3DPrintBoard'
p441
(dp442
g3
(dp443
g5
(dp444
g7
F0.06041335453100159
sg8
F152.0
sg9
F0.7755102040816326
ssg10
(dp445
g7
F0.003577106518282989
sg8
F9.0
sg9
F0.04591836734693878
ssg12
(dp446
g7
F0.031399046104928455
sg8
F79.0
sg9
F0.4030612244897959
ssg30
(dp447
g7
F0.0011923688394276629
sg8
F3.0
sg9
F0.015306122448979591
ssg14
(dp448
g7
F0.006756756756756757
sg8
F17.0
sg9
F0.08673469387755102
ssg16
(dp449
g7
F0.000794912559618442
sg8
F2.0
sg9
F0.01020408163265306
ssg34
(dp450
g7
F0.001987281399046105
sg8
F5.0
sg9
F0.025510204081632654
ssg18
(dp451
g7
F0.013116057233704292
sg8
F33.0
sg9
F0.1683673469387755
ssg37
(dp452
g7
F0.001589825119236884
sg8
F4.0
sg9
F0.02040816326530612
sssg20
I0
sg21
I196
sg22
I152
sg23
I2516
ssS'planetarduino'
p453
(dp454
g3
(dp455
g10
(dp456
g7
F0.006340057636887608
sg8
F11.0
sg9
F0.06285714285714286
ssg12
(dp457
g7
F0.023054755043227664
sg8
F40.0
sg9
F0.22857142857142856
ssg5
(dp458
g7
F0.051296829971181554
sg8
F89.0
sg9
F0.5085714285714286
ssg14
(dp459
g7
F0.01037463976945245
sg8
F18.0
sg9
F0.10285714285714286
ssg18
(dp460
g7
F0.011527377521613832
sg8
F20.0
sg9
F0.11428571428571428
sssg20
I0
sg21
I175
sg22
I89
sg23
I1735
ssS'Raspberry_Pi'
p461
(dp462
g3
(dp463
g5
(dp464
g7
F0.04882154882154882
sg8
F145.0
sg9
F0.7967032967032966
ssg10
(dp465
g7
F0.0053872053872053875
sg8
F16.0
sg9
F0.08791208791208792
ssg12
(dp466
g7
F0.021885521885521887
sg8
F65.0
sg9
F0.35714285714285715
ssg88
(dp467
g7
F0.0016835016835016834
sg8
F5.0
sg9
F0.027472527472527472
ssg30
(dp468
g7
F0.0030303030303030303
sg8
F9.0
sg9
F0.04945054945054945
ssg14
(dp469
g7
F0.00808080808080808
sg8
F24.0
sg9
F0.13186813186813187
ssg16
(dp470
g7
F0.0003367003367003367
sg8
F1.0
sg9
F0.005494505494505495
ssg34
(dp471
g7
F0.0003367003367003367
sg8
F1.0
sg9
F0.005494505494505495
ssg18
(dp472
g7
F0.00808080808080808
sg8
F24.0
sg9
F0.13186813186813187
sssg20
I0
sg21
I182
sg22
I145
sg23
I2970
ssS'RSComponents'
p473
(dp474
g3
(dp475
g5
(dp476
g7
F0.05319504851120776
sg8
F159.0
sg9
F0.8071065989847716
ssg10
(dp477
g7
F0.004014720642355303
sg8
F12.0
sg9
F0.06091370558375635
ssg12
(dp478
g7
F0.026764804282368684
sg8
F80.0
sg9
F0.40609137055837563
ssg88
(dp479
g7
F0.0013382402141184342
sg8
F4.0
sg9
F0.02030456852791878
ssg30
(dp480
g7
F0.0016728002676480427
sg8
F5.0
sg9
F0.025380710659898477
ssg14
(dp481
g7
F0.005018400802944129
sg8
F15.0
sg9
F0.07614213197969544
ssg16
(dp482
g7
F0.0013382402141184342
sg8
F4.0
sg9
F0.02030456852791878
ssg34
(dp483
g7
F0.0010036801605888257
sg8
F3.0
sg9
F0.015228426395939087
ssg18
(dp484
g7
F0.0117096018735363
sg8
F35.0
sg9
F0.17766497461928935
ssg37
(dp485
g7
F0.00033456005352960856
sg8
F1.0
sg9
F0.005076142131979695
sssg20
I0
sg21
I197
sg22
I159
sg23
I2989
ssS'TheMagP1'
p486
(dp487
g3
(dp488
g5
(dp489
g7
F0.0329105245114844
sg8
F96.0
sg9
F0.5052631578947369
ssg10
(dp490
g7
F0.0037709976002742542
sg8
F11.0
sg9
F0.05789473684210526
ssg12
(dp491
g7
F0.015083990401097017
sg8
F44.0
sg9
F0.23157894736842105
ssg30
(dp492
g7
F0.0010284538909838875
sg8
F3.0
sg9
F0.015789473684210527
ssg14
(dp493
g7
F0.0061707233459033254
sg8
F18.0
sg9
F0.09473684210526316
ssg16
(dp494
g7
F0.00034281796366129587
sg8
F1.0
sg9
F0.005263157894736842
ssg18
(dp495
g7
F0.0061707233459033254
sg8
F18.0
sg9
F0.09473684210526316
ssg37
(dp496
g7
F0.00034281796366129587
sg8
F1.0
sg9
F0.005263157894736842
sssg20
I0
sg21
I190
sg22
I96
sg23
I2917
ssVzalamerabnb
p497
(dp498
S'scores'
p499
(dp500
S'0'
p501
(dp502
S'per_word'
p503
F0.02197802197802198
sS'raw'
p504
F2.0
sS'per_tweet'
p505
F0.2857142857142857
ssS'all'
p506
(dp507
g503
F0.04395604395604396
sg504
F4.0
sg505
F0.5714285714285714
ssS'4'
p508
(dp509
g503
F0.02197802197802198
sg504
F2.0
sg505
F0.2857142857142857
sssS'source'
p510
I1
sS'ntweets'
p511
I7
sS'nmappings'
p512
I4
sS'nwords'
p513
I91
ssS'mbanzi'
p514
(dp515
g3
(dp516
g5
(dp517
g7
F0.05930232558139535
sg8
F153.0
sg9
F0.8895348837209303
ssg10
(dp518
g7
F0.008527131782945736
sg8
F22.0
sg9
F0.12790697674418605
ssg12
(dp519
g7
F0.027906976744186046
sg8
F72.0
sg9
F0.4186046511627907
ssg88
(dp520
g7
F0.0011627906976744186
sg8
F3.0
sg9
F0.01744186046511628
ssg30
(dp521
g7
F0.0011627906976744186
sg8
F3.0
sg9
F0.01744186046511628
ssg14
(dp522
g7
F0.007364341085271318
sg8
F19.0
sg9
F0.11046511627906977
ssg16
(dp523
g7
F0.0003875968992248062
sg8
F1.0
sg9
F0.005813953488372093
ssg34
(dp524
g7
F0.0027131782945736434
sg8
F7.0
sg9
F0.040697674418604654
ssg18
(dp525
g7
F0.009689922480620155
sg8
F25.0
sg9
F0.14534883720930233
ssg37
(dp526
g7
F0.0003875968992248062
sg8
F1.0
sg9
F0.005813953488372093
sssg20
I0
sg21
I172
sg22
I153
sg23
I2580
ssS'fabbaloo'
p527
(dp528
g3
(dp529
g10
(dp530
g7
F0.00507399577167019
sg8
F12.0
sg9
F0.06091370558375635
ssg12
(dp531
g7
F0.029175475687103596
sg8
F69.0
sg9
F0.350253807106599
ssg5
(dp532
g7
F0.06088794926004228
sg8
F144.0
sg9
F0.7309644670050761
ssg14
(dp533
g7
F0.011839323467230444
sg8
F28.0
sg9
F0.14213197969543148
ssg18
(dp534
g7
F0.014799154334038054
sg8
F35.0
sg9
F0.17766497461928935
sssg20
I0
sg21
I197
sg22
I144
sg23
I2365
ssS'imaterialise'
p535
(dp536
g3
(dp537
g5
(dp538
g7
F0.05071119356833643
sg8
F164.0
sg9
F0.8282828282828283
ssg10
(dp539
g7
F0.0027829313543599257
sg8
F9.0
sg9
F0.045454545454545456
ssg12
(dp540
g7
F0.027829313543599257
sg8
F90.0
sg9
F0.45454545454545453
ssg88
(dp541
g7
F0.00030921459492888067
sg8
F1.0
sg9
F0.005050505050505051
ssg30
(dp542
g7
F0.0006184291898577613
sg8
F2.0
sg9
F0.010101010101010102
ssg14
(dp543
g7
F0.008039579468150896
sg8
F26.0
sg9
F0.13131313131313133
ssg18
(dp544
g7
F0.010822510822510822
sg8
F35.0
sg9
F0.17676767676767677
ssg37
(dp545
g7
F0.00030921459492888067
sg8
F1.0
sg9
F0.005050505050505051
sssg20
I0
sg21
I198
sg22
I164
sg23
I3234
ssS'StackSocial'
p546
(dp547
g3
(dp548
g5
(dp549
g7
F0.053341324543002694
sg8
F178.0
sg9
F0.8944723618090452
ssg10
(dp550
g7
F0.00239736290080911
sg8
F8.0
sg9
F0.04020100502512563
ssg12
(dp551
g7
F0.024872640095894516
sg8
F83.0
sg9
F0.41708542713567837
ssg30
(dp552
g7
F0.001198681450404555
sg8
F4.0
sg9
F0.020100502512562814
ssg14
(dp553
g7
F0.012586155229247827
sg8
F42.0
sg9
F0.21105527638190955
ssg16
(dp554
g7
F0.00029967036260113877
sg8
F1.0
sg9
F0.005025125628140704
ssg18
(dp555
g7
F0.01198681450404555
sg8
F40.0
sg9
F0.20100502512562815
sssg20
I0
sg21
I199
sg22
I178
sg23
I3337
ssS'TabTimes'
p556
(dp557
g3
(dp558
g5
(dp559
g7
F0.04
sg8
F102.0
sg9
F0.51
ssg10
(dp560
g7
F0.005098039215686275
sg8
F13.0
sg9
F0.065
ssg12
(dp561
g7
F0.01607843137254902
sg8
F41.0
sg9
F0.205
ssg30
(dp562
g7
F0.000392156862745098
sg8
F1.0
sg9
F0.005
ssg14
(dp563
g7
F0.006666666666666667
sg8
F17.0
sg9
F0.085
ssg16
(dp564
g7
F0.000392156862745098
sg8
F1.0
sg9
F0.005
ssg34
(dp565
g7
F0.0027450980392156863
sg8
F7.0
sg9
F0.035
ssg18
(dp566
g7
F0.008627450980392156
sg8
F22.0
sg9
F0.11
sssg20
I0
sg21
I200
sg22
I102
sg23
I2550
ssVhamzaz
p567
(dp568
g354
(dp569
g356
(dp570
g358
F0.026634382566585957
sg359
F11.0
sg360
F0.4230769230769231
ssg361
(dp571
g358
F0.002421307506053269
sg359
F1.0
sg360
F0.038461538461538464
ssg363
(dp572
g358
F0.012106537530266344
sg359
F5.0
sg360
F0.19230769230769232
ssg365
(dp573
g358
F0.002421307506053269
sg359
F1.0
sg360
F0.038461538461538464
ssg367
(dp574
g358
F0.002421307506053269
sg359
F1.0
sg360
F0.038461538461538464
ssg369
(dp575
g358
F0.002421307506053269
sg359
F1.0
sg360
F0.038461538461538464
ssg371
(dp576
g358
F0.002421307506053269
sg359
F1.0
sg360
F0.038461538461538464
ssg375
(dp577
g358
F0.002421307506053269
sg359
F1.0
sg360
F0.038461538461538464
sssg379
I1
sg380
I26
sg381
I11
sg382
I413
ssS'RealSexyCyborg'
p578
(dp579
g3
(dp580
g5
(dp581
g7
F0.0353251898316276
sg8
F107.0
sg9
F0.5846994535519126
ssg10
(dp582
g7
F0.0029712776493892373
sg8
F9.0
sg9
F0.04918032786885246
ssg12
(dp583
g7
F0.014856388246946187
sg8
F45.0
sg9
F0.2459016393442623
ssg88
(dp584
g7
F0.0009904258831297458
sg8
F3.0
sg9
F0.01639344262295082
ssg30
(dp585
g7
F0.0009904258831297458
sg8
F3.0
sg9
F0.01639344262295082
ssg14
(dp586
g7
F0.006932981181908221
sg8
F21.0
sg9
F0.11475409836065574
ssg16
(dp587
g7
F0.0013205678441729944
sg8
F4.0
sg9
F0.02185792349726776
ssg34
(dp588
g7
F0.0003301419610432486
sg8
F1.0
sg9
F0.00546448087431694
ssg18
(dp589
g7
F0.006932981181908221
sg8
F21.0
sg9
F0.11475409836065574
sssg20
I0
sg21
I183
sg22
I107
sg23
I3029
ssS'RPiSpy'
p590
(dp591
g3
(dp592
g5
(dp593
g7
F0.028629265471370735
sg8
F99.0
sg9
F0.5
ssg10
(dp594
g7
F0.004916136495083863
sg8
F17.0
sg9
F0.08585858585858586
ssg12
(dp595
g7
F0.013013302486986697
sg8
F45.0
sg9
F0.22727272727272727
ssg14
(dp596
g7
F0.004337767495662233
sg8
F15.0
sg9
F0.07575757575757576
ssg16
(dp597
g7
F0.0008675534991324465
sg8
F3.0
sg9
F0.015151515151515152
ssg18
(dp598
g7
F0.005205320994794679
sg8
F18.0
sg9
F0.09090909090909091
ssg37
(dp599
g7
F0.0002891844997108155
sg8
F1.0
sg9
F0.005050505050505051
sssg20
I0
sg21
I198
sg22
I99
sg23
I3458
ssS'arduinoblog'
p600
(dp601
g3
(dp602
g5
(dp603
g7
F0.12928827444956478
sg8
F505.0
sg9
F2.5376884422110555
ssg10
(dp604
g7
F0.010752688172043012
sg8
F42.0
sg9
F0.21105527638190955
ssg12
(dp605
g7
F0.05504352278545827
sg8
F215.0
sg9
F1.0804020100502512
ssg88
(dp606
g7
F0.002560163850486431
sg8
F10.0
sg9
F0.05025125628140704
ssg30
(dp607
g7
F0.005120327700972862
sg8
F20.0
sg9
F0.10050251256281408
ssg14
(dp608
g7
F0.023297491039426525
sg8
F91.0
sg9
F0.457286432160804
ssg34
(dp609
g7
F0.006144393241167435
sg8
F24.0
sg9
F0.12060301507537688
ssg18
(dp610
g7
F0.02636968766001024
sg8
F103.0
sg9
F0.5175879396984925
sssg20
I0
sg21
I199
sg22
I505
sg23
I3906
ssS'seeedstudio'
p611
(dp612
g3
(dp613
g5
(dp614
g7
F0.04970513900589722
sg8
F118.0
sg9
F0.6666666666666666
ssg10
(dp615
g7
F0.0008424599831508003
sg8
F2.0
sg9
F0.011299435028248588
ssg12
(dp616
g7
F0.02485256950294861
sg8
F59.0
sg9
F0.3333333333333333
ssg88
(dp617
g7
F0.00042122999157540015
sg8
F1.0
sg9
F0.005649717514124294
ssg30
(dp618
g7
F0.007582139848357203
sg8
F18.0
sg9
F0.1016949152542373
ssg14
(dp619
g7
F0.006318449873631003
sg8
F15.0
sg9
F0.0847457627118644
ssg16
(dp620
g7
F0.0012636899747262005
sg8
F3.0
sg9
F0.01694915254237288
ssg34
(dp621
g7
F0.00042122999157540015
sg8
F1.0
sg9
F0.005649717514124294
ssg18
(dp622
g7
F0.008003369839932602
sg8
F19.0
sg9
F0.10734463276836158
sssg20
I0
sg21
I177
sg22
I118
sg23
I2374
ssVbulentozel
p623
(dp624
S'scores'
p625
(dp626
S'1'
p627
(dp628
S'per_word'
p629
F0.0034965034965034965
sS'raw'
p630
F1.0
sS'per_tweet'
p631
F0.03333333333333333
ssS'0'
p632
(dp633
g629
F0.017482517482517484
sg630
F5.0
sg631
F0.16666666666666666
ssS'all'
p634
(dp635
g629
F0.024475524475524476
sg630
F7.0
sg631
F0.23333333333333334
ssS'6'
p636
(dp637
g629
F0.0034965034965034965
sg630
F1.0
sg631
F0.03333333333333333
sssS'source'
p638
I1
sS'ntweets'
p639
I30
sS'nmappings'
p640
I7
sS'nwords'
p641
I286
ssS'3DHubs'
p642
(dp643
g3
(dp644
g5
(dp645
g7
F0.043674698795180725
sg8
F145.0
sg9
F0.7397959183673469
ssg10
(dp646
g7
F0.002108433734939759
sg8
F7.0
sg9
F0.03571428571428571
ssg12
(dp647
g7
F0.022289156626506025
sg8
F74.0
sg9
F0.37755102040816324
ssg88
(dp648
g7
F0.00030120481927710846
sg8
F1.0
sg9
F0.00510204081632653
ssg30
(dp649
g7
F0.0024096385542168677
sg8
F8.0
sg9
F0.04081632653061224
ssg14
(dp650
g7
F0.0051204819277108436
sg8
F17.0
sg9
F0.08673469387755102
ssg16
(dp651
g7
F0.0009036144578313253
sg8
F3.0
sg9
F0.015306122448979591
ssg34
(dp652
g7
F0.0009036144578313253
sg8
F3.0
sg9
F0.015306122448979591
ssg18
(dp653
g7
F0.009337349397590362
sg8
F31.0
sg9
F0.15816326530612246
ssg37
(dp654
g7
F0.00030120481927710846
sg8
F1.0
sg9
F0.00510204081632653
sssg20
I0
sg21
I196
sg22
I145
sg23
I3320
ssS'3DPrintingFans'
p655
(dp656
g3
(dp657
g5
(dp658
g7
F0.06049679487179487
sg8
F151.0
sg9
F0.7704081632653061
ssg10
(dp659
g7
F0.003605769230769231
sg8
F9.0
sg9
F0.04591836734693878
ssg12
(dp660
g7
F0.031650641025641024
sg8
F79.0
sg9
F0.4030612244897959
ssg30
(dp661
g7
F0.001201923076923077
sg8
F3.0
sg9
F0.015306122448979591
ssg14
(dp662
g7
F0.006810897435897436
sg8
F17.0
sg9
F0.08673469387755102
ssg16
(dp663
g7
F0.0008012820512820513
sg8
F2.0
sg9
F0.01020408163265306
ssg34
(dp664
g7
F0.002003205128205128
sg8
F5.0
sg9
F0.025510204081632654
ssg18
(dp665
g7
F0.01282051282051282
sg8
F32.0
sg9
F0.16326530612244897
ssg37
(dp666
g7
F0.0016025641025641025
sg8
F4.0
sg9
F0.02040816326530612
sssg20
I0
sg21
I196
sg22
I151
sg23
I2496
ssS'element14'
p667
(dp668
g3
(dp669
g5
(dp670
g7
F0.0612183353437877
sg8
F203.0
sg9
F1.015
ssg10
(dp671
g7
F0.0024125452352231603
sg8
F8.0
sg9
F0.04
ssg12
(dp672
g7
F0.028950542822677925
sg8
F96.0
sg9
F0.48
ssg88
(dp673
g7
F0.0048250904704463205
sg8
F16.0
sg9
F0.08
ssg30
(dp674
g7
F0.0048250904704463205
sg8
F16.0
sg9
F0.08
ssg14
(dp675
g7
F0.0066344993968636915
sg8
F22.0
sg9
F0.11
ssg16
(dp676
g7
F0.0006031363088057901
sg8
F2.0
sg9
F0.01
ssg34
(dp677
g7
F0.0006031363088057901
sg8
F2.0
sg9
F0.01
ssg18
(dp678
g7
F0.012364294330518697
sg8
F41.0
sg9
F0.205
sssg20
I0
sg21
I200
sg22
I203
sg23
I3316
ssS'sparkfun'
p679
(dp680
g3
(dp681
g5
(dp682
g7
F0.055300782303749664
sg8
F205.0
sg9
F1.0512820512820513
ssg10
(dp683
g7
F0.004046398705152414
sg8
F15.0
sg9
F0.07692307692307693
ssg12
(dp684
g7
F0.024008632317237658
sg8
F89.0
sg9
F0.4564102564102564
ssg88
(dp685
g7
F0.001348799568384138
sg8
F5.0
sg9
F0.02564102564102564
ssg30
(dp686
g7
F0.0018883193957377933
sg8
F7.0
sg9
F0.035897435897435895
ssg14
(dp687
g7
F0.009711356892365795
sg8
F36.0
sg9
F0.18461538461538463
ssg16
(dp688
g7
F0.002158079309414621
sg8
F8.0
sg9
F0.041025641025641026
ssg34
(dp689
g7
F0.0005395198273536552
sg8
F2.0
sg9
F0.010256410256410256
ssg18
(dp690
g7
F0.01132991637442676
sg8
F42.0
sg9
F0.2153846153846154
ssg37
(dp691
g7
F0.0002697599136768276
sg8
F1.0
sg9
F0.005128205128205128
sssg20
I0
sg21
I195
sg22
I205
sg23
I3707
ssS'arduino'
p692
(dp693
g3
(dp694
g5
(dp695
g7
F0.06217030896759608
sg8
F165.0
sg9
F0.8549222797927462
ssg10
(dp696
g7
F0.005651846269781462
sg8
F15.0
sg9
F0.07772020725388601
ssg12
(dp697
g7
F0.0293896006028636
sg8
F78.0
sg9
F0.40414507772020725
ssg14
(dp698
g7
F0.012434061793519217
sg8
F33.0
sg9
F0.17098445595854922
ssg16
(dp699
g7
F0.0011303692539562924
sg8
F3.0
sg9
F0.015544041450777202
ssg18
(dp700
g7
F0.013564431047475508
sg8
F36.0
sg9
F0.18652849740932642
sssg20
I0
sg21
I193
sg22
I165
sg23
I2654
ssS'3d_printers'
p701
(dp702
g3
(dp703
g5
(dp704
g7
F0.046762589928057555
sg8
F130.0
sg9
F0.6632653061224489
ssg10
(dp705
g7
F0.00035971223021582735
sg8
F1.0
sg9
F0.00510204081632653
ssg12
(dp706
g7
F0.02050359712230216
sg8
F57.0
sg9
F0.29081632653061223
ssg88
(dp707
g7
F0.00035971223021582735
sg8
F1.0
sg9
F0.00510204081632653
ssg30
(dp708
g7
F0.0014388489208633094
sg8
F4.0
sg9
F0.02040816326530612
ssg14
(dp709
g7
F0.00935251798561151
sg8
F26.0
sg9
F0.1326530612244898
ssg34
(dp710
g7
F0.0035971223021582736
sg8
F10.0
sg9
F0.05102040816326531
ssg18
(dp711
g7
F0.010431654676258994
sg8
F29.0
sg9
F0.14795918367346939
ssg37
(dp712
g7
F0.0007194244604316547
sg8
F2.0
sg9
F0.01020408163265306
sssg20
I0
sg21
I196
sg22
I130
sg23
I2780
ssS'makerbot'
p713
(dp714
g3
(dp715
g5
(dp716
g7
F0.10301021817177575
sg8
F373.0
sg9
F1.8743718592964824
ssg10
(dp717
g7
F0.0011046672190002762
sg8
F4.0
sg9
F0.020100502512562814
ssg12
(dp718
g7
F0.04611985639326153
sg8
F167.0
sg9
F0.8391959798994975
ssg88
(dp719
g7
F0.00027616680475006904
sg8
F1.0
sg9
F0.005025125628140704
ssg30
(dp720
g7
F0.0022093344380005524
sg8
F8.0
sg9
F0.04020100502512563
ssg14
(dp721
g7
F0.02236951118475559
sg8
F81.0
sg9
F0.40703517587939697
ssg16
(dp722
g7
F0.0005523336095001381
sg8
F2.0
sg9
F0.010050251256281407
ssg34
(dp723
g7
F0.0008285004142502071
sg8
F3.0
sg9
F0.01507537688442211
ssg18
(dp724
g7
F0.028169014084507043
sg8
F102.0
sg9
F0.5125628140703518
ssg37
(dp725
g7
F0.0013808340237503453
sg8
F5.0
sg9
F0.02512562814070352
sssg20
I0
sg21
I199
sg22
I373
sg23
I3621
ssS'CodeClub'
p726
(dp727
g3
(dp728
g5
(dp729
g7
F0.03522756492671638
sg8
F137.0
sg9
F0.6919191919191919
ssg10
(dp730
g7
F0.003342761635381846
sg8
F13.0
sg9
F0.06565656565656566
ssg12
(dp731
g7
F0.01799948572897917
sg8
F70.0
sg9
F0.35353535353535354
ssg88
(dp732
g7
F0.0010285420416559527
sg8
F4.0
sg9
F0.020202020202020204
ssg30
(dp733
g7
F0.003342761635381846
sg8
F13.0
sg9
F0.06565656565656566
ssg14
(dp734
g7
F0.0038570326562098224
sg8
F15.0
sg9
F0.07575757575757576
ssg16
(dp735
g7
F0.00025713551041398817
sg8
F1.0
sg9
F0.005050505050505051
ssg34
(dp736
g7
F0.00025713551041398817
sg8
F1.0
sg9
F0.005050505050505051
ssg18
(dp737
g7
F0.005142710208279763
sg8
F20.0
sg9
F0.10101010101010101
sssg20
I0
sg21
I198
sg22
I137
sg23
I3889
ssS'MakerShed'
p738
(dp739
g3
(dp740
g5
(dp741
g7
F0.06155998600909409
sg8
F176.0
sg9
F0.8888888888888888
ssg10
(dp742
g7
F0.002448408534452606
sg8
F7.0
sg9
F0.03535353535353535
ssg12
(dp743
g7
F0.025883175935641833
sg8
F74.0
sg9
F0.37373737373737376
ssg88
(dp744
g7
F0.001049317943336831
sg8
F3.0
sg9
F0.015151515151515152
ssg30
(dp745
g7
F0.0031479538300104933
sg8
F9.0
sg9
F0.045454545454545456
ssg14
(dp746
g7
F0.013990905911157748
sg8
F40.0
sg9
F0.20202020202020202
ssg18
(dp747
g7
F0.015040223854494578
sg8
F43.0
sg9
F0.21717171717171718
sssg20
I0
sg21
I198
sg22
I176
sg23
I2859
ssVzbattiz
p748
(dp749
S'scores'
p750
(dp751
S'all'
p752
(dp753
S'per_word'
p754
F0.07275132275132275
sS'raw'
p755
F55.0
sS'per_tweet'
p756
F1.2222222222222223
ssS'1'
p757
(dp758
g754
F0.0013227513227513227
sg755
F1.0
sg756
F0.022222222222222223
ssS'0'
p759
(dp760
g754
F0.03571428571428571
sg755
F27.0
sg756
F0.6
ssS'3'
p761
(dp762
g754
F0.0026455026455026454
sg755
F2.0
sg756
F0.044444444444444446
ssS'2'
p763
(dp764
g754
F0.006613756613756613
sg755
F5.0
sg756
F0.1111111111111111
ssS'5'
p765
(dp766
g754
F0.003968253968253968
sg755
F3.0
sg756
F0.06666666666666667
ssS'4'
p767
(dp768
g754
F0.013227513227513227
sg755
F10.0
sg756
F0.2222222222222222
ssS'7'
p769
(dp770
g754
F0.005291005291005291
sg755
F4.0
sg756
F0.08888888888888889
ssS'6'
p771
(dp772
g754
F0.003968253968253968
sg755
F3.0
sg756
F0.06666666666666667
sssS'source'
p773
I1
sS'ntweets'
p774
I45
sS'nmappings'
p775
I55
sS'nwords'
p776
I756
ssVmaker
p777
(dp778
S'source'
p779
I1
sS'ntweets'
p780
I196
sS'nwords'
p781
I3065
sS'nmappings'
p782
I352
sS'scores'
p783
(dp784
S'all'
p785
(dp786
S'per_word'
p787
F0.11484502446982056
sS'raw'
p788
F352.0
sS'per_tweet'
p789
F1.7959183673469388
ssS'1'
p790
(dp791
g787
F0.0013050570962479609
sg788
F4.0
sg789
F0.02040816326530612
ssS'0'
p792
(dp793
g787
F0.04861337683523654
sg788
F149.0
sg789
F0.7602040816326531
ssS'3'
p794
(dp795
g787
F0.0006525285481239804
sg788
F2.0
sg789
F0.01020408163265306
ssS'2'
p796
(dp797
g787
F0.003915171288743882
sg788
F12.0
sg789
F0.061224489795918366
ssS'5'
p798
(dp799
g787
F0.02838499184339315
sg788
F87.0
sg789
F0.44387755102040816
ssS'4'
p800
(dp801
g787
F0.0003262642740619902
sg788
F1.0
sg789
F0.00510204081632653
ssS'7'
p802
(dp803
g787
F0.0006525285481239804
sg788
F2.0
sg789
F0.01020408163265306
ssS'6'
p804
(dp805
g787
F0.03099510603588907
sg788
F95.0
sg789
F0.4846938775510204
ssss.