(dp0
S'ThePiHut'
p1
(dp2
S'source'
p3
I0
sS'ntweets'
p4
I192
sS'nwords'
p5
I2758
sS'nmappings'
p6
I85
sS'scores'
p7
(dp8
S'all'
p9
(dp10
S'per_word'
p11
F0.030819434372733864
sS'raw'
p12
F85.0
sS'per_tweet'
p13
F0.4427083333333333
ssS'1'
p14
(dp15
g11
F0.0025380710659898475
sg12
F7.0
sg13
F0.036458333333333336
ssS'0'
p16
(dp17
g11
F0.013415518491660623
sg12
F37.0
sg13
F0.19270833333333334
ssS'5'
p18
(dp19
g11
F0.006526468455402465
sg12
F18.0
sg13
F0.09375
ssS'4'
p20
(dp21
g11
F0.0014503263234227702
sg12
F4.0
sg13
F0.020833333333333332
ssS'7'
p22
(dp23
g11
F0.0007251631617113851
sg12
F2.0
sg13
F0.010416666666666666
ssS'6'
p24
(dp25
g11
F0.006163886874546773
sg12
F17.0
sg13
F0.08854166666666667
ssssS'My3DPrinting'
p26
(dp27
g3
I0
sg4
I196
sg5
I2320
sg6
I145
sg7
(dp28
g9
(dp29
g11
F0.0625
sg12
F145.0
sg13
F0.7397959183673469
ssg14
(dp30
g11
F0.003017241379310345
sg12
F7.0
sg13
F0.03571428571428571
ssg16
(dp31
g11
F0.029741379310344828
sg12
F69.0
sg13
F0.3520408163265306
ssS'3'
p32
(dp33
g11
F0.0008620689655172414
sg12
F2.0
sg13
F0.01020408163265306
ssS'2'
p34
(dp35
g11
F0.0008620689655172414
sg12
F2.0
sg13
F0.01020408163265306
ssg18
(dp36
g11
F0.011206896551724138
sg12
F26.0
sg13
F0.1326530612244898
ssg20
(dp37
g11
F0.001293103448275862
sg12
F3.0
sg13
F0.015306122448979591
ssg22
(dp38
g11
F0.003017241379310345
sg12
F7.0
sg13
F0.03571428571428571
ssg24
(dp39
g11
F0.01163793103448276
sg12
F27.0
sg13
F0.1377551020408163
ssS'8'
p40
(dp41
g11
F0.0008620689655172414
sg12
F2.0
sg13
F0.01020408163265306
ssssS'instructables'
p42
(dp43
g3
I0
sg4
I180
sg5
I1606
sg6
I126
sg7
(dp44
g9
(dp45
g11
F0.0784557907845579
sg12
F126.0
sg13
F0.7
ssg14
(dp46
g11
F0.0006226650062266501
sg12
F1.0
sg13
F0.005555555555555556
ssg16
(dp47
g11
F0.03798256537982565
sg12
F61.0
sg13
F0.3388888888888889
ssg34
(dp48
g11
F0.0006226650062266501
sg12
F1.0
sg13
F0.005555555555555556
ssg18
(dp49
g11
F0.0186799501867995
sg12
F30.0
sg13
F0.16666666666666666
ssg20
(dp50
g11
F0.0006226650062266501
sg12
F1.0
sg13
F0.005555555555555556
ssg22
(dp51
g11
F0.0012453300124533001
sg12
F2.0
sg13
F0.011111111111111112
ssg24
(dp52
g11
F0.0186799501867995
sg12
F30.0
sg13
F0.16666666666666666
ssssS'lifehacker'
p53
(dp54
g3
I0
sg4
I200
sg5
I2829
sg6
I96
sg7
(dp55
g9
(dp56
g11
F0.033934252386002124
sg12
F96.0
sg13
F0.48
ssg14
(dp57
g11
F0.0014139271827500884
sg12
F4.0
sg13
F0.02
ssg16
(dp58
g11
F0.014846235418875928
sg12
F42.0
sg13
F0.21
ssg32
(dp59
g11
F0.0007069635913750442
sg12
F2.0
sg13
F0.01
ssg34
(dp60
g11
F0.0010604453870625664
sg12
F3.0
sg13
F0.015
ssg18
(dp61
g11
F0.007423117709437964
sg12
F21.0
sg13
F0.105
ssg22
(dp62
g11
F0.0010604453870625664
sg12
F3.0
sg13
F0.015
ssg24
(dp63
g11
F0.007423117709437964
sg12
F21.0
sg13
F0.105
ssssS'3DPrintGirl'
p64
(dp65
g3
I0
sg4
I196
sg5
I2320
sg6
I145
sg7
(dp66
g9
(dp67
g11
F0.0625
sg12
F145.0
sg13
F0.7397959183673469
ssg14
(dp68
g11
F0.003017241379310345
sg12
F7.0
sg13
F0.03571428571428571
ssg16
(dp69
g11
F0.029741379310344828
sg12
F69.0
sg13
F0.3520408163265306
ssg32
(dp70
g11
F0.0008620689655172414
sg12
F2.0
sg13
F0.01020408163265306
ssg34
(dp71
g11
F0.0008620689655172414
sg12
F2.0
sg13
F0.01020408163265306
ssg18
(dp72
g11
F0.011206896551724138
sg12
F26.0
sg13
F0.1326530612244898
ssg20
(dp73
g11
F0.001293103448275862
sg12
F3.0
sg13
F0.015306122448979591
ssg22
(dp74
g11
F0.003017241379310345
sg12
F7.0
sg13
F0.03571428571428571
ssg24
(dp75
g11
F0.01163793103448276
sg12
F27.0
sg13
F0.1377551020408163
ssg40
(dp76
g11
F0.0008620689655172414
sg12
F2.0
sg13
F0.01020408163265306
ssssS'dangerousproto'
p77
(dp78
g3
I0
sg4
I182
sg5
I1651
sg6
I138
sg7
(dp79
g9
(dp80
g11
F0.08358570563294973
sg12
F138.0
sg13
F0.7582417582417582
ssg14
(dp81
g11
F0.027256208358570563
sg12
F45.0
sg13
F0.24725274725274726
ssg16
(dp82
g11
F0.04542701393095094
sg12
F75.0
sg13
F0.41208791208791207
ssg34
(dp83
g11
F0.0006056935190793458
sg12
F1.0
sg13
F0.005494505494505495
ssg18
(dp84
g11
F0.0024227740763173833
sg12
F4.0
sg13
F0.02197802197802198
ssg20
(dp85
g11
F0.0030284675953967293
sg12
F5.0
sg13
F0.027472527472527472
ssg22
(dp86
g11
F0.0006056935190793458
sg12
F1.0
sg13
F0.005494505494505495
ssg24
(dp87
g11
F0.004239854633555421
sg12
F7.0
sg13
F0.038461538461538464
ssssS'makerfaire'
p88
(dp89
g3
I0
sg4
I188
sg5
I2983
sg6
I266
sg7
(dp90
g9
(dp91
g11
F0.08917197452229299
sg12
F266.0
sg13
F1.4148936170212767
ssg14
(dp92
g11
F0.00033523298692591353
sg12
F1.0
sg13
F0.005319148936170213
ssg16
(dp93
g11
F0.03486423064029501
sg12
F104.0
sg13
F0.5531914893617021
ssg32
(dp94
g11
F0.0013409319477036541
sg12
F4.0
sg13
F0.02127659574468085
ssg34
(dp95
g11
F0.0023466309084813944
sg12
F7.0
sg13
F0.03723404255319149
ssg18
(dp96
g11
F0.02212537713711029
sg12
F66.0
sg13
F0.35106382978723405
ssg20
(dp97
g11
F0.0010056989607777405
sg12
F3.0
sg13
F0.015957446808510637
ssg22
(dp98
g11
F0.00033523298692591353
sg12
F1.0
sg13
F0.005319148936170213
ssg24
(dp99
g11
F0.026483405967147166
sg12
F79.0
sg13
F0.42021276595744683
ssg40
(dp100
g11
F0.00033523298692591353
sg12
F1.0
sg13
F0.005319148936170213
ssssS'planetarduino'
p101
(dp102
g3
I0
sg4
I187
sg5
I1908
sg6
I123
sg7
(dp103
g9
(dp104
g11
F0.06446540880503145
sg12
F123.0
sg13
F0.6577540106951871
ssg14
(dp105
g11
F0.0020964360587002098
sg12
F4.0
sg13
F0.0213903743315508
ssg16
(dp106
g11
F0.027777777777777776
sg12
F53.0
sg13
F0.28342245989304815
ssg18
(dp107
g11
F0.01310272536687631
sg12
F25.0
sg13
F0.13368983957219252
ssg20
(dp108
g11
F0.0020964360587002098
sg12
F4.0
sg13
F0.0213903743315508
ssg22
(dp109
g11
F0.0015723270440251573
sg12
F3.0
sg13
F0.016042780748663103
ssg24
(dp110
g11
F0.01781970649895178
sg12
F34.0
sg13
F0.18181818181818182
ssssS'linuxfoundation'
p111
(dp112
g3
I0
sg4
I197
sg5
I3688
sg6
I360
sg7
(dp113
g9
(dp114
g11
F0.09761388286334056
sg12
F360.0
sg13
F1.8274111675126903
ssg14
(dp115
g11
F0.025759219088937094
sg12
F95.0
sg13
F0.48223350253807107
ssg16
(dp116
g11
F0.04934924078091106
sg12
F182.0
sg13
F0.9238578680203046
ssg32
(dp117
g11
F0.003796095444685466
sg12
F14.0
sg13
F0.07106598984771574
ssg34
(dp118
g11
F0.0067787418655097615
sg12
F25.0
sg13
F0.12690355329949238
ssg18
(dp119
g11
F0.0027114967462039045
sg12
F10.0
sg13
F0.050761421319796954
ssg20
(dp120
g11
F0.0005422993492407809
sg12
F2.0
sg13
F0.01015228426395939
ssg22
(dp121
g11
F0.0010845986984815619
sg12
F4.0
sg13
F0.02030456852791878
ssg24
(dp122
g11
F0.0070498915401301515
sg12
F26.0
sg13
F0.1319796954314721
ssg40
(dp123
g11
F0.0005422993492407809
sg12
F2.0
sg13
F0.01015228426395939
ssssS'3dprintindustry'
p124
(dp125
g3
I0
sg4
I194
sg5
I3019
sg6
I119
sg7
(dp126
g9
(dp127
g11
F0.03941702550513415
sg12
F119.0
sg13
F0.6134020618556701
ssg14
(dp128
g11
F0.002649884067572044
sg12
F8.0
sg13
F0.041237113402061855
ssg16
(dp129
g11
F0.013580655846306725
sg12
F41.0
sg13
F0.211340206185567
ssg18
(dp130
g11
F0.0059622391520370984
sg12
F18.0
sg13
F0.09278350515463918
ssg22
(dp131
g11
F0.01093077177873468
sg12
F33.0
sg13
F0.17010309278350516
ssg24
(dp132
g11
F0.0059622391520370984
sg12
F18.0
sg13
F0.09278350515463918
ssg40
(dp133
g11
F0.0003312355084465055
sg12
F1.0
sg13
F0.005154639175257732
ssssS'3dprinting3d'
p134
(dp135
g3
I0
sg4
I199
sg5
I2892
sg6
I138
sg7
(dp136
g9
(dp137
g11
F0.04771784232365145
sg12
F138.0
sg13
F0.6934673366834171
ssg14
(dp138
g11
F0.001037344398340249
sg12
F3.0
sg13
F0.01507537688442211
ssg16
(dp139
g11
F0.020055325034578148
sg12
F58.0
sg13
F0.2914572864321608
ssg34
(dp140
g11
F0.00034578146611341634
sg12
F1.0
sg13
F0.005025125628140704
ssg18
(dp141
g11
F0.008644536652835409
sg12
F25.0
sg13
F0.12562814070351758
ssg20
(dp142
g11
F0.0017289073305670815
sg12
F5.0
sg13
F0.02512562814070352
ssg22
(dp143
g11
F0.005186721991701245
sg12
F15.0
sg13
F0.07537688442211055
ssg24
(dp144
g11
F0.01037344398340249
sg12
F30.0
sg13
F0.1507537688442211
ssg40
(dp145
g11
F0.00034578146611341634
sg12
F1.0
sg13
F0.005025125628140704
ssssS'ModMyPi'
p146
(dp147
g3
I0
sg4
I195
sg5
I3635
sg6
I111
sg7
(dp148
g9
(dp149
g11
F0.030536451169188447
sg12
F111.0
sg13
F0.5692307692307692
ssg14
(dp150
g11
F0.002200825309491059
sg12
F8.0
sg13
F0.041025641025641026
ssg16
(dp151
g11
F0.013755158184319119
sg12
F50.0
sg13
F0.2564102564102564
ssg32
(dp152
g11
F0.0002751031636863824
sg12
F1.0
sg13
F0.005128205128205128
ssg34
(dp153
g11
F0.001375515818431912
sg12
F5.0
sg13
F0.02564102564102564
ssg18
(dp154
g11
F0.0068775790921595595
sg12
F25.0
sg13
F0.1282051282051282
ssg22
(dp155
g11
F0.0005502063273727648
sg12
F2.0
sg13
F0.010256410256410256
ssg24
(dp156
g11
F0.005502063273727648
sg12
F20.0
sg13
F0.10256410256410256
ssssS'hackaday'
p157
(dp158
g3
I0
sg4
I194
sg5
I2613
sg6
I138
sg7
(dp159
g9
(dp160
g11
F0.05281285878300804
sg12
F138.0
sg13
F0.711340206185567
ssg14
(dp161
g11
F0.004209720627631076
sg12
F11.0
sg13
F0.05670103092783505
ssg16
(dp162
g11
F0.024492920015308076
sg12
F64.0
sg13
F0.32989690721649484
ssg32
(dp163
g11
F0.0019135093761959434
sg12
F5.0
sg13
F0.02577319587628866
ssg34
(dp164
g11
F0.0026789131266743206
sg12
F7.0
sg13
F0.03608247422680412
ssg18
(dp165
g11
F0.008036739380022962
sg12
F21.0
sg13
F0.10824742268041238
ssg20
(dp166
g11
F0.0007654037504783774
sg12
F2.0
sg13
F0.010309278350515464
ssg24
(dp167
g11
F0.010715652506697282
sg12
F28.0
sg13
F0.14432989690721648
ssssS'MicrochipMakes'
p168
(dp169
g3
I0
sg4
I199
sg5
I3083
sg6
I184
sg7
(dp170
g9
(dp171
g11
F0.05968212779759974
sg12
F184.0
sg13
F0.9246231155778895
ssg14
(dp172
g11
F0.005514109633473889
sg12
F17.0
sg13
F0.08542713567839195
ssg16
(dp173
g11
F0.026921829386960753
sg12
F83.0
sg13
F0.41708542713567837
ssg32
(dp174
g11
F0.0003243593902043464
sg12
F1.0
sg13
F0.005025125628140704
ssg34
(dp175
g11
F0.0003243593902043464
sg12
F1.0
sg13
F0.005025125628140704
ssg18
(dp176
g11
F0.012974375608173857
sg12
F40.0
sg13
F0.20100502512562815
ssg20
(dp177
g11
F0.0006487187804086928
sg12
F2.0
sg13
F0.010050251256281407
ssg24
(dp178
g11
F0.012974375608173857
sg12
F40.0
sg13
F0.20100502512562815
ssssS'adafruit'
p179
(dp180
g3
I0
sg4
I188
sg5
I2748
sg6
I134
sg7
(dp181
g9
(dp182
g11
F0.0487627365356623
sg12
F134.0
sg13
F0.7127659574468085
ssg14
(dp183
g11
F0.001819505094614265
sg12
F5.0
sg13
F0.026595744680851064
ssg16
(dp184
g11
F0.02292576419213974
sg12
F63.0
sg13
F0.3351063829787234
ssg32
(dp185
g11
F0.001091703056768559
sg12
F3.0
sg13
F0.015957446808510637
ssg34
(dp186
g11
F0.001455604075691412
sg12
F4.0
sg13
F0.02127659574468085
ssg18
(dp187
g11
F0.008733624454148471
sg12
F24.0
sg13
F0.1276595744680851
ssg20
(dp188
g11
F0.001091703056768559
sg12
F3.0
sg13
F0.015957446808510637
ssg22
(dp189
g11
F0.000363901018922853
sg12
F1.0
sg13
F0.005319148936170213
ssg24
(dp190
g11
F0.011280931586608443
sg12
F31.0
sg13
F0.16489361702127658
ssssS'3dersorg'
p191
(dp192
g3
I0
sg4
I195
sg5
I3361
sg6
I152
sg7
(dp193
g9
(dp194
g11
F0.045224635525141325
sg12
F152.0
sg13
F0.7794871794871795
ssg14
(dp195
g11
F0.0032728354656352274
sg12
F11.0
sg13
F0.05641025641025641
ssg16
(dp196
g11
F0.022612317762570663
sg12
F76.0
sg13
F0.38974358974358975
ssg32
(dp197
g11
F0.0002975304968759298
sg12
F1.0
sg13
F0.005128205128205128
ssg18
(dp198
g11
F0.008033323415650105
sg12
F27.0
sg13
F0.13846153846153847
ssg20
(dp199
g11
F0.0005950609937518596
sg12
F2.0
sg13
F0.010256410256410256
ssg22
(dp200
g11
F0.0023802439750074383
sg12
F8.0
sg13
F0.041025641025641026
ssg24
(dp201
g11
F0.008033323415650105
sg12
F27.0
sg13
F0.13846153846153847
ssssS'3dprintingcom'
p202
(dp203
g3
I0
sg4
I195
sg5
I2689
sg6
I106
sg7
(dp204
g9
(dp205
g11
F0.039419858683525474
sg12
F106.0
sg13
F0.5435897435897435
ssg14
(dp206
g11
F0.0007437709185570844
sg12
F2.0
sg13
F0.010256410256410256
ssg16
(dp207
g11
F0.01859427296392711
sg12
F50.0
sg13
F0.2564102564102564
ssg18
(dp208
g11
F0.004462625511342506
sg12
F12.0
sg13
F0.06153846153846154
ssg22
(dp209
g11
F0.004090740052063964
sg12
F11.0
sg13
F0.05641025641025641
ssg24
(dp210
g11
F0.011528449237634809
sg12
F31.0
sg13
F0.15897435897435896
ssssS'htpc_guides'
p211
(dp212
g3
I0
sg4
I159
sg5
I1684
sg6
I69
sg7
(dp213
g14
(dp214
g11
F0.004750593824228029
sg12
F8.0
sg13
F0.050314465408805034
ssg16
(dp215
g11
F0.019596199524940617
sg12
F33.0
sg13
F0.20754716981132076
ssg9
(dp216
g11
F0.040973871733966744
sg12
F69.0
sg13
F0.4339622641509434
ssg18
(dp217
g11
F0.012470308788598575
sg12
F21.0
sg13
F0.1320754716981132
ssg24
(dp218
g11
F0.004156769596199525
sg12
F7.0
sg13
F0.0440251572327044
ssssS'ColorFabb'
p219
(dp220
g3
I0
sg4
I187
sg5
I3634
sg6
I119
sg7
(dp221
g9
(dp222
g11
F0.03274628508530545
sg12
F119.0
sg13
F0.6363636363636364
ssg14
(dp223
g11
F0.003577325261419923
sg12
F13.0
sg13
F0.06951871657754011
ssg16
(dp224
g11
F0.015410016510731976
sg12
F56.0
sg13
F0.2994652406417112
ssg34
(dp225
g11
F0.000275178866263071
sg12
F1.0
sg13
F0.0053475935828877
ssg18
(dp226
g11
F0.0049532195927352776
sg12
F18.0
sg13
F0.0962566844919786
ssg20
(dp227
g11
F0.000550357732526142
sg12
F2.0
sg13
F0.0106951871657754
ssg22
(dp228
g11
F0.000550357732526142
sg12
F2.0
sg13
F0.0106951871657754
ssg24
(dp229
g11
F0.007429829389102917
sg12
F27.0
sg13
F0.1443850267379679
ssssS'xKaliSec'
p230
(dp231
g3
I0
sg4
I182
sg5
I2169
sg6
I165
sg7
(dp232
g9
(dp233
g11
F0.07607192254495158
sg12
F165.0
sg13
F0.9065934065934066
ssg14
(dp234
g11
F0.004149377593360996
sg12
F9.0
sg13
F0.04945054945054945
ssg16
(dp235
g11
F0.033656062701705854
sg12
F73.0
sg13
F0.4010989010989011
ssg18
(dp236
g11
F0.01705855232826187
sg12
F37.0
sg13
F0.2032967032967033
ssg22
(dp237
g11
F0.0004610419548178884
sg12
F1.0
sg13
F0.005494505494505495
ssg24
(dp238
g11
F0.02028584601198709
sg12
F44.0
sg13
F0.24175824175824176
ssg40
(dp239
g11
F0.0004610419548178884
sg12
F1.0
sg13
F0.005494505494505495
ssssS'make'
p240
(dp241
g3
I0
sg4
I197
sg5
I3474
sg6
I369
sg7
(dp242
g9
(dp243
g11
F0.10621761658031088
sg12
F369.0
sg13
F1.8730964467005076
ssg14
(dp244
g11
F0.0005757052389176742
sg12
F2.0
sg13
F0.01015228426395939
ssg16
(dp245
g11
F0.04317789291882556
sg12
F150.0
sg13
F0.7614213197969543
ssg32
(dp246
g11
F0.0017271157167530224
sg12
F6.0
sg13
F0.030456852791878174
ssg34
(dp247
g11
F0.0031663788140472078
sg12
F11.0
sg13
F0.05583756345177665
ssg18
(dp248
g11
F0.02475532527345999
sg12
F86.0
sg13
F0.4365482233502538
ssg20
(dp249
g11
F0.0017271157167530224
sg12
F6.0
sg13
F0.030456852791878174
ssg22
(dp250
g11
F0.0011514104778353484
sg12
F4.0
sg13
F0.02030456852791878
ssg24
(dp251
g11
F0.029936672423719057
sg12
F104.0
sg13
F0.5279187817258884
ssssS'TheMagP1'
p252
(dp253
g3
I0
sg4
I194
sg5
I3052
sg6
I90
sg7
(dp254
g9
(dp255
g11
F0.02948885976408912
sg12
F90.0
sg13
F0.4639175257731959
ssg14
(dp256
g11
F0.003931847968545216
sg12
F12.0
sg13
F0.061855670103092786
ssg16
(dp257
g11
F0.013433813892529489
sg12
F41.0
sg13
F0.211340206185567
ssg32
(dp258
g11
F0.000327653997378768
sg12
F1.0
sg13
F0.005154639175257732
ssg34
(dp259
g11
F0.001310615989515072
sg12
F4.0
sg13
F0.020618556701030927
ssg18
(dp260
g11
F0.003931847968545216
sg12
F12.0
sg13
F0.061855670103092786
ssg20
(dp261
g11
F0.000327653997378768
sg12
F1.0
sg13
F0.005154639175257732
ssg22
(dp262
g11
F0.000327653997378768
sg12
F1.0
sg13
F0.005154639175257732
ssg24
(dp263
g11
F0.005897771952817824
sg12
F18.0
sg13
F0.09278350515463918
ssssS'3dsystems'
p264
(dp265
g3
I0
sg4
I198
sg5
I3534
sg6
I163
sg7
(dp266
g9
(dp267
g11
F0.04612337294850028
sg12
F163.0
sg13
F0.8232323232323232
ssg14
(dp268
g11
F0.0011318619128466328
sg12
F4.0
sg13
F0.020202020202020204
ssg16
(dp269
g11
F0.025466893039049237
sg12
F90.0
sg13
F0.45454545454545453
ssg32
(dp270
g11
F0.0002829654782116582
sg12
F1.0
sg13
F0.005050505050505051
ssg34
(dp271
g11
F0.0002829654782116582
sg12
F1.0
sg13
F0.005050505050505051
ssg18
(dp272
g11
F0.00622524052065648
sg12
F22.0
sg13
F0.1111111111111111
ssg20
(dp273
g11
F0.0002829654782116582
sg12
F1.0
sg13
F0.005050505050505051
ssg22
(dp274
g11
F0.0014148273910582908
sg12
F5.0
sg13
F0.025252525252525252
ssg24
(dp275
g11
F0.010752688172043012
sg12
F38.0
sg13
F0.1919191919191919
ssg40
(dp276
g11
F0.0002829654782116582
sg12
F1.0
sg13
F0.005050505050505051
ssssS'shapeways'
p277
(dp278
g3
I0
sg4
I199
sg5
I3414
sg6
I214
sg7
(dp279
g9
(dp280
g11
F0.0626830697129467
sg12
F214.0
sg13
F1.0753768844221105
ssg14
(dp281
g11
F0.0046865846514352666
sg12
F16.0
sg13
F0.08040201005025126
ssg16
(dp282
g11
F0.03046280023432923
sg12
F104.0
sg13
F0.5226130653266332
ssg32
(dp283
g11
F0.0011716461628588166
sg12
F4.0
sg13
F0.020100502512562814
ssg34
(dp284
g11
F0.0026362038664323375
sg12
F9.0
sg13
F0.04522613065326633
ssg18
(dp285
g11
F0.011130638547158758
sg12
F38.0
sg13
F0.19095477386934673
ssg22
(dp286
g11
F0.00029291154071470416
sg12
F1.0
sg13
F0.005025125628140704
ssg24
(dp287
g11
F0.01200937316930287
sg12
F41.0
sg13
F0.20603015075376885
ssg40
(dp288
g11
F0.00029291154071470416
sg12
F1.0
sg13
F0.005025125628140704
ssssS'freetronics'
p289
(dp290
g3
I0
sg4
I187
sg5
I2664
sg6
I185
sg7
(dp291
g9
(dp292
g11
F0.06944444444444445
sg12
F185.0
sg13
F0.9893048128342246
ssg14
(dp293
g11
F0.027402402402402402
sg12
F73.0
sg13
F0.39037433155080214
ssg16
(dp294
g11
F0.03678678678678678
sg12
F98.0
sg13
F0.5240641711229946
ssg18
(dp295
g11
F0.0015015015015015015
sg12
F4.0
sg13
F0.0213903743315508
ssg20
(dp296
g11
F0.0011261261261261261
sg12
F3.0
sg13
F0.016042780748663103
ssg22
(dp297
g11
F0.0007507507507507507
sg12
F2.0
sg13
F0.0106951871657754
ssg24
(dp298
g11
F0.0018768768768768769
sg12
F5.0
sg13
F0.026737967914438502
ssssS'3DPrintingIt'
p299
(dp300
g3
I0
sg4
I196
sg5
I2320
sg6
I145
sg7
(dp301
g9
(dp302
g11
F0.0625
sg12
F145.0
sg13
F0.7397959183673469
ssg14
(dp303
g11
F0.003017241379310345
sg12
F7.0
sg13
F0.03571428571428571
ssg16
(dp304
g11
F0.029741379310344828
sg12
F69.0
sg13
F0.3520408163265306
ssg32
(dp305
g11
F0.0008620689655172414
sg12
F2.0
sg13
F0.01020408163265306
ssg34
(dp306
g11
F0.0008620689655172414
sg12
F2.0
sg13
F0.01020408163265306
ssg18
(dp307
g11
F0.011206896551724138
sg12
F26.0
sg13
F0.1326530612244898
ssg20
(dp308
g11
F0.001293103448275862
sg12
F3.0
sg13
F0.015306122448979591
ssg22
(dp309
g11
F0.003017241379310345
sg12
F7.0
sg13
F0.03571428571428571
ssg24
(dp310
g11
F0.01163793103448276
sg12
F27.0
sg13
F0.1377551020408163
ssg40
(dp311
g11
F0.0008620689655172414
sg12
F2.0
sg13
F0.01020408163265306
ssssS'androidcentral'
p312
(dp313
g3
I0
sg4
I197
sg5
I3029
sg6
I66
sg7
(dp314
g9
(dp315
g11
F0.021789369428854406
sg12
F66.0
sg13
F0.3350253807106599
ssg14
(dp316
g11
F0.0036315615714757345
sg12
F11.0
sg13
F0.05583756345177665
ssg16
(dp317
g11
F0.00957411687025421
sg12
F29.0
sg13
F0.14720812182741116
ssg18
(dp318
g11
F0.0036315615714757345
sg12
F11.0
sg13
F0.05583756345177665
ssg24
(dp319
g11
F0.00462198745460548
sg12
F14.0
sg13
F0.07106598984771574
ssg40
(dp320
g11
F0.0003301419610432486
sg12
F1.0
sg13
F0.005076142131979695
ssssS'Ultimaker'
p321
(dp322
g3
I0
sg4
I191
sg5
I3798
sg6
I286
sg7
(dp323
g9
(dp324
g11
F0.07530279094260137
sg12
F286.0
sg13
F1.4973821989528795
ssg14
(dp325
g11
F0.0013164823591363876
sg12
F5.0
sg13
F0.02617801047120419
ssg16
(dp326
g11
F0.03817798841495524
sg12
F145.0
sg13
F0.7591623036649214
ssg32
(dp327
g11
F0.0007898894154818325
sg12
F3.0
sg13
F0.015706806282722512
ssg34
(dp328
g11
F0.00315955766192733
sg12
F12.0
sg13
F0.06282722513089005
ssg18
(dp329
g11
F0.010531858873091101
sg12
F40.0
sg13
F0.2094240837696335
ssg20
(dp330
g11
F0.0007898894154818325
sg12
F3.0
sg13
F0.015706806282722512
ssg22
(dp331
g11
F0.000526592943654555
sg12
F2.0
sg13
F0.010471204188481676
ssg24
(dp332
g11
F0.020010531858873092
sg12
F76.0
sg13
F0.39790575916230364
ssssS'3dprinting'
p333
(dp334
g3
I0
sg4
I174
sg5
I2966
sg6
I140
sg7
(dp335
g9
(dp336
g11
F0.04720161834120027
sg12
F140.0
sg13
F0.8045977011494253
ssg14
(dp337
g11
F0.004720161834120027
sg12
F14.0
sg13
F0.08045977011494253
ssg16
(dp338
g11
F0.024275118004045852
sg12
F72.0
sg13
F0.41379310344827586
ssg32
(dp339
g11
F0.00033715441672285906
sg12
F1.0
sg13
F0.005747126436781609
ssg34
(dp340
g11
F0.00033715441672285906
sg12
F1.0
sg13
F0.005747126436781609
ssg18
(dp341
g11
F0.008091706001348618
sg12
F24.0
sg13
F0.13793103448275862
ssg20
(dp342
g11
F0.0006743088334457181
sg12
F2.0
sg13
F0.011494252873563218
ssg22
(dp343
g11
F0.00033715441672285906
sg12
F1.0
sg13
F0.005747126436781609
ssg24
(dp344
g11
F0.008428860418071477
sg12
F25.0
sg13
F0.14367816091954022
ssssS'3DPrintBoard'
p345
(dp346
g3
I0
sg4
I196
sg5
I2474
sg6
I148
sg7
(dp347
g9
(dp348
g11
F0.05982215036378335
sg12
F148.0
sg13
F0.7551020408163265
ssg14
(dp349
g11
F0.0032336297493936943
sg12
F8.0
sg13
F0.04081632653061224
ssg16
(dp350
g11
F0.02869846402586904
sg12
F71.0
sg13
F0.3622448979591837
ssg32
(dp351
g11
F0.0008084074373484236
sg12
F2.0
sg13
F0.01020408163265306
ssg34
(dp352
g11
F0.0008084074373484236
sg12
F2.0
sg13
F0.01020408163265306
ssg18
(dp353
g11
F0.010509296685529508
sg12
F26.0
sg13
F0.1326530612244898
ssg20
(dp354
g11
F0.0012126111560226355
sg12
F3.0
sg13
F0.015306122448979591
ssg22
(dp355
g11
F0.0028294260307194824
sg12
F7.0
sg13
F0.03571428571428571
ssg24
(dp356
g11
F0.010913500404203719
sg12
F27.0
sg13
F0.1377551020408163
ssg40
(dp357
g11
F0.0008084074373484236
sg12
F2.0
sg13
F0.01020408163265306
ssssS'pimoroni'
p358
(dp359
g3
I0
sg4
I191
sg5
I3164
sg6
I63
sg7
(dp360
g9
(dp361
g11
F0.01991150442477876
sg12
F63.0
sg13
F0.3298429319371728
ssg14
(dp362
g11
F0.0006321112515802782
sg12
F2.0
sg13
F0.010471204188481676
ssg16
(dp363
g11
F0.009165613147914033
sg12
F29.0
sg13
F0.1518324607329843
ssg34
(dp364
g11
F0.0003160556257901391
sg12
F1.0
sg13
F0.005235602094240838
ssg18
(dp365
g11
F0.0037926675094816687
sg12
F12.0
sg13
F0.06282722513089005
ssg22
(dp366
g11
F0.0003160556257901391
sg12
F1.0
sg13
F0.005235602094240838
ssg24
(dp367
g11
F0.005689001264222503
sg12
F18.0
sg13
F0.09424083769633508
ssssS'Raspberry_Pi'
p368
(dp369
g3
I0
sg4
I191
sg5
I4336
sg6
I227
sg7
(dp370
g9
(dp371
g11
F0.05235239852398524
sg12
F227.0
sg13
F1.1884816753926701
ssg14
(dp372
g11
F0.005996309963099631
sg12
F26.0
sg13
F0.13612565445026178
ssg16
(dp373
g11
F0.023754612546125462
sg12
F103.0
sg13
F0.5392670157068062
ssg32
(dp374
g11
F0.0013837638376383763
sg12
F6.0
sg13
F0.031413612565445025
ssg34
(dp375
g11
F0.003459409594095941
sg12
F15.0
sg13
F0.07853403141361257
ssg18
(dp376
g11
F0.007149446494464945
sg12
F31.0
sg13
F0.16230366492146597
ssg20
(dp377
g11
F0.0006918819188191881
sg12
F3.0
sg13
F0.015706806282722512
ssg22
(dp378
g11
F0.00046125461254612545
sg12
F2.0
sg13
F0.010471204188481676
ssg24
(dp379
g11
F0.00922509225092251
sg12
F40.0
sg13
F0.2094240837696335
ssg40
(dp380
g11
F0.00023062730627306272
sg12
F1.0
sg13
F0.005235602094240838
ssssS'RSComponents'
p381
(dp382
g3
I0
sg4
I199
sg5
I3972
sg6
I280
sg7
(dp383
g9
(dp384
g11
F0.07049345417925479
sg12
F280.0
sg13
F1.407035175879397
ssg14
(dp385
g11
F0.004783484390735146
sg12
F19.0
sg13
F0.09547738693467336
ssg16
(dp386
g11
F0.03449144008056395
sg12
F137.0
sg13
F0.6884422110552764
ssg32
(dp387
g11
F0.00025176233635448137
sg12
F1.0
sg13
F0.005025125628140704
ssg34
(dp388
g11
F0.0012588116817724068
sg12
F5.0
sg13
F0.02512562814070352
ssg18
(dp389
g11
F0.008559919436052367
sg12
F34.0
sg13
F0.1708542713567839
ssg20
(dp390
g11
F0.002014098690835851
sg12
F8.0
sg13
F0.04020100502512563
ssg22
(dp391
g11
F0.0015105740181268882
sg12
F6.0
sg13
F0.03015075376884422
ssg24
(dp392
g11
F0.017371601208459216
sg12
F69.0
sg13
F0.34673366834170855
ssg40
(dp393
g11
F0.00025176233635448137
sg12
F1.0
sg13
F0.005025125628140704
ssssS'Pi_Borg'
p394
(dp395
g3
I0
sg4
I194
sg5
I2929
sg6
I46
sg7
(dp396
g9
(dp397
g11
F0.015705018777739842
sg12
F46.0
sg13
F0.23711340206185566
ssg14
(dp398
g11
F0.0010242403550699897
sg12
F3.0
sg13
F0.015463917525773196
ssg16
(dp399
g11
F0.007852509388869921
sg12
F23.0
sg13
F0.11855670103092783
ssg34
(dp400
g11
F0.0006828269033799932
sg12
F2.0
sg13
F0.010309278350515464
ssg18
(dp401
g11
F0.0027313076135199728
sg12
F8.0
sg13
F0.041237113402061855
ssg24
(dp402
g11
F0.0030727210652099694
sg12
F9.0
sg13
F0.04639175257731959
ssg40
(dp403
g11
F0.0003414134516899966
sg12
F1.0
sg13
F0.005154639175257732
ssssS'mbanzi'
p404
(dp405
g3
I0
sg4
I166
sg5
I2556
sg6
I134
sg7
(dp406
g9
(dp407
g11
F0.05242566510172144
sg12
F134.0
sg13
F0.8072289156626506
ssg14
(dp408
g11
F0.006651017214397496
sg12
F17.0
sg13
F0.10240963855421686
ssg16
(dp409
g11
F0.023474178403755867
sg12
F60.0
sg13
F0.3614457831325301
ssg32
(dp410
g11
F0.003129890453834116
sg12
F8.0
sg13
F0.04819277108433735
ssg34
(dp411
g11
F0.0027386541471048514
sg12
F7.0
sg13
F0.04216867469879518
ssg18
(dp412
g11
F0.005086071987480438
sg12
F13.0
sg13
F0.0783132530120482
ssg22
(dp413
g11
F0.0019561815336463224
sg12
F5.0
sg13
F0.030120481927710843
ssg24
(dp414
g11
F0.008215962441314555
sg12
F21.0
sg13
F0.12650602409638553
ssg40
(dp415
g11
F0.0011737089201877935
sg12
F3.0
sg13
F0.018072289156626505
ssssS'fabbaloo'
p416
(dp417
g3
I0
sg4
I196
sg5
I2276
sg6
I148
sg7
(dp418
g9
(dp419
g11
F0.06502636203866433
sg12
F148.0
sg13
F0.7551020408163265
ssg14
(dp420
g11
F0.006590509666080844
sg12
F15.0
sg13
F0.07653061224489796
ssg16
(dp421
g11
F0.032952548330404216
sg12
F75.0
sg13
F0.3826530612244898
ssg32
(dp422
g11
F0.0013181019332161687
sg12
F3.0
sg13
F0.015306122448979591
ssg34
(dp423
g11
F0.0008787346221441124
sg12
F2.0
sg13
F0.01020408163265306
ssg18
(dp424
g11
F0.008347978910369069
sg12
F19.0
sg13
F0.09693877551020408
ssg20
(dp425
g11
F0.0008787346221441124
sg12
F2.0
sg13
F0.01020408163265306
ssg22
(dp426
g11
F0.0021968365553602814
sg12
F5.0
sg13
F0.025510204081632654
ssg24
(dp427
g11
F0.011862917398945518
sg12
F27.0
sg13
F0.1377551020408163
ssssS'imaterialise'
p428
(dp429
g3
I0
sg4
I191
sg5
I3233
sg6
I180
sg7
(dp430
g9
(dp431
g11
F0.05567584287039901
sg12
F180.0
sg13
F0.9424083769633508
ssg14
(dp432
g11
F0.0024744819053510673
sg12
F8.0
sg13
F0.041884816753926704
ssg16
(dp433
g11
F0.030312403340550572
sg12
F98.0
sg13
F0.5130890052356021
ssg34
(dp434
g11
F0.0006186204763377668
sg12
F2.0
sg13
F0.010471204188481676
ssg18
(dp435
g11
F0.008351376430559852
sg12
F27.0
sg13
F0.14136125654450263
ssg24
(dp436
g11
F0.013300340241261985
sg12
F43.0
sg13
F0.225130890052356
ssg40
(dp437
g11
F0.0006186204763377668
sg12
F2.0
sg13
F0.010471204188481676
ssssS'StackSocial'
p438
(dp439
g3
I0
sg4
I200
sg5
I3017
sg6
I197
sg7
(dp440
g9
(dp441
g11
F0.06529665230361285
sg12
F197.0
sg13
F0.985
ssg14
(dp442
g11
F0.0069605568445475635
sg12
F21.0
sg13
F0.105
ssg16
(dp443
g11
F0.03082532316871064
sg12
F93.0
sg13
F0.465
ssg32
(dp444
g11
F0.003977461054027179
sg12
F12.0
sg13
F0.06
ssg34
(dp445
g11
F0.004971826317533974
sg12
F15.0
sg13
F0.075
ssg18
(dp446
g11
F0.005966191581040769
sg12
F18.0
sg13
F0.09
ssg20
(dp447
g11
F0.0019887305270135896
sg12
F6.0
sg13
F0.03
ssg22
(dp448
g11
F0.001325820351342393
sg12
F4.0
sg13
F0.02
ssg24
(dp449
g11
F0.008286377195889956
sg12
F25.0
sg13
F0.125
ssg40
(dp450
g11
F0.0009943652635067948
sg12
F3.0
sg13
F0.015
ssssVhamzaz
p451
(dp452
S'scores'
p453
(dp454
S'all'
p455
(dp456
S'per_word'
p457
F0.047619047619047616
sS'raw'
p458
F17.0
sS'per_tweet'
p459
F0.7083333333333334
ssS'1'
p460
(dp461
g457
F0.0028011204481792717
sg458
F1.0
sg459
F0.041666666666666664
ssS'0'
p462
(dp463
g457
F0.0196078431372549
sg458
F7.0
sg459
F0.2916666666666667
ssS'3'
p464
(dp465
g457
F0.0056022408963585435
sg458
F2.0
sg459
F0.08333333333333333
ssS'2'
p466
(dp467
g457
F0.008403361344537815
sg458
F3.0
sg459
F0.125
ssS'4'
p468
(dp469
g457
F0.008403361344537815
sg458
F3.0
sg459
F0.125
ssS'7'
p470
(dp471
g457
F0.0028011204481792717
sg458
F1.0
sg459
F0.041666666666666664
sssS'source'
p472
I1
sS'ntweets'
p473
I24
sS'nmappings'
p474
I17
sS'nwords'
p475
I357
ssS'RealSexyCyborg'
p476
(dp477
g3
I0
sg4
I180
sg5
I3806
sg6
I126
sg7
(dp478
g9
(dp479
g11
F0.03310562270099842
sg12
F126.0
sg13
F0.7
ssg14
(dp480
g11
F0.002627430373095113
sg12
F10.0
sg13
F0.05555555555555555
ssg16
(dp481
g11
F0.01602732527588019
sg12
F61.0
sg13
F0.3388888888888889
ssg32
(dp482
g11
F0.0010509721492380452
sg12
F4.0
sg13
F0.022222222222222223
ssg34
(dp483
g11
F0.0013137151865475565
sg12
F5.0
sg13
F0.027777777777777776
ssg18
(dp484
g11
F0.005517603783499738
sg12
F21.0
sg13
F0.11666666666666667
ssg20
(dp485
g11
F0.0005254860746190226
sg12
F2.0
sg13
F0.011111111111111112
ssg24
(dp486
g11
F0.00604308985811876
sg12
F23.0
sg13
F0.12777777777777777
ssssS'RPiSpy'
p487
(dp488
g3
I0
sg4
I195
sg5
I3558
sg6
I133
sg7
(dp489
g9
(dp490
g11
F0.037380550871275994
sg12
F133.0
sg13
F0.6820512820512821
ssg14
(dp491
g11
F0.003372681281618887
sg12
F12.0
sg13
F0.06153846153846154
ssg16
(dp492
g11
F0.016582349634626195
sg12
F59.0
sg13
F0.30256410256410254
ssg34
(dp493
g11
F0.0002810567734682406
sg12
F1.0
sg13
F0.005128205128205128
ssg18
(dp494
g11
F0.006464305789769534
sg12
F23.0
sg13
F0.11794871794871795
ssg20
(dp495
g11
F0.0030916245081506464
sg12
F11.0
sg13
F0.05641025641025641
ssg22
(dp496
g11
F0.0008431703204047217
sg12
F3.0
sg13
F0.015384615384615385
ssg24
(dp497
g11
F0.006464305789769534
sg12
F23.0
sg13
F0.11794871794871795
ssg40
(dp498
g11
F0.0002810567734682406
sg12
F1.0
sg13
F0.005128205128205128
ssssS'arduinoblog'
p499
(dp500
g3
I0
sg4
I199
sg5
I3906
sg6
I505
sg7
(dp501
g9
(dp502
g11
F0.12928827444956478
sg12
F505.0
sg13
F2.5376884422110555
ssg14
(dp503
g11
F0.010752688172043012
sg12
F42.0
sg13
F0.21105527638190955
ssg16
(dp504
g11
F0.05504352278545827
sg12
F215.0
sg13
F1.0804020100502512
ssg32
(dp505
g11
F0.002560163850486431
sg12
F10.0
sg13
F0.05025125628140704
ssg34
(dp506
g11
F0.005120327700972862
sg12
F20.0
sg13
F0.10050251256281408
ssg18
(dp507
g11
F0.023297491039426525
sg12
F91.0
sg13
F0.457286432160804
ssg22
(dp508
g11
F0.006144393241167435
sg12
F24.0
sg13
F0.12060301507537688
ssg24
(dp509
g11
F0.02636968766001024
sg12
F103.0
sg13
F0.5175879396984925
ssssS'seeedstudio'
p510
(dp511
g3
I0
sg4
I179
sg5
I3039
sg6
I143
sg7
(dp512
g9
(dp513
g11
F0.04705495228693649
sg12
F143.0
sg13
F0.7988826815642458
ssg14
(dp514
g11
F0.0029615004935834156
sg12
F9.0
sg13
F0.05027932960893855
ssg16
(dp515
g11
F0.022704837117472853
sg12
F69.0
sg13
F0.3854748603351955
ssg32
(dp516
g11
F0.0003290556103981573
sg12
F1.0
sg13
F0.00558659217877095
ssg34
(dp517
g11
F0.0009871668311944718
sg12
F3.0
sg13
F0.01675977653631285
ssg18
(dp518
g11
F0.008555445870352089
sg12
F26.0
sg13
F0.1452513966480447
ssg20
(dp519
g11
F0.0009871668311944718
sg12
F3.0
sg13
F0.01675977653631285
ssg22
(dp520
g11
F0.0003290556103981573
sg12
F1.0
sg13
F0.00558659217877095
ssg24
(dp521
g11
F0.009542612701546561
sg12
F29.0
sg13
F0.16201117318435754
ssg40
(dp522
g11
F0.0006581112207963146
sg12
F2.0
sg13
F0.0111731843575419
ssssVbulentozel
p523
(dp524
S'source'
p525
I1
sS'ntweets'
p526
I15
sS'nwords'
p527
I186
sS'nmappings'
p528
I23
sS'scores'
p529
(dp530
S'all'
p531
(dp532
S'per_word'
p533
F0.12365591397849462
sS'raw'
p534
F23.0
sS'per_tweet'
p535
F1.5333333333333334
ssS'1'
p536
(dp537
g533
F0.021505376344086023
sg534
F4.0
sg535
F0.26666666666666666
ssS'0'
p538
(dp539
g533
F0.06451612903225806
sg534
F12.0
sg535
F0.8
ssS'3'
p540
(dp541
g533
F0.005376344086021506
sg534
F1.0
sg535
F0.06666666666666667
ssS'2'
p542
(dp543
g533
F0.005376344086021506
sg534
F1.0
sg535
F0.06666666666666667
ssS'5'
p544
(dp545
g533
F0.005376344086021506
sg534
F1.0
sg535
F0.06666666666666667
ssS'4'
p546
(dp547
g533
F0.005376344086021506
sg534
F1.0
sg535
F0.06666666666666667
ssS'6'
p548
(dp549
g533
F0.016129032258064516
sg534
F3.0
sg535
F0.2
ssssS'3DHubs'
p550
(dp551
g3
I0
sg4
I197
sg5
I4011
sg6
I192
sg7
(dp552
g9
(dp553
g11
F0.04786836200448766
sg12
F192.0
sg13
F0.9746192893401016
ssg16
(dp554
g11
F0.02243829468960359
sg12
F90.0
sg13
F0.45685279187817257
ssg32
(dp555
g11
F0.0009972575417601596
sg12
F4.0
sg13
F0.02030456852791878
ssg34
(dp556
g11
F0.002742458239840439
sg12
F11.0
sg13
F0.05583756345177665
ssg18
(dp557
g11
F0.008726003490401396
sg12
F35.0
sg13
F0.17766497461928935
ssg20
(dp558
g11
F0.0004986287708800798
sg12
F2.0
sg13
F0.01015228426395939
ssg22
(dp559
g11
F0.0002493143854400399
sg12
F1.0
sg13
F0.005076142131979695
ssg24
(dp560
g11
F0.011967090501121914
sg12
F48.0
sg13
F0.2436548223350254
ssg40
(dp561
g11
F0.0002493143854400399
sg12
F1.0
sg13
F0.005076142131979695
ssssS'3DPrintingFans'
p562
(dp563
g3
I0
sg4
I196
sg5
I2320
sg6
I145
sg7
(dp564
g9
(dp565
g11
F0.0625
sg12
F145.0
sg13
F0.7397959183673469
ssg14
(dp566
g11
F0.003017241379310345
sg12
F7.0
sg13
F0.03571428571428571
ssg16
(dp567
g11
F0.029741379310344828
sg12
F69.0
sg13
F0.3520408163265306
ssg32
(dp568
g11
F0.0008620689655172414
sg12
F2.0
sg13
F0.01020408163265306
ssg34
(dp569
g11
F0.0008620689655172414
sg12
F2.0
sg13
F0.01020408163265306
ssg18
(dp570
g11
F0.011206896551724138
sg12
F26.0
sg13
F0.1326530612244898
ssg20
(dp571
g11
F0.001293103448275862
sg12
F3.0
sg13
F0.015306122448979591
ssg22
(dp572
g11
F0.003017241379310345
sg12
F7.0
sg13
F0.03571428571428571
ssg24
(dp573
g11
F0.01163793103448276
sg12
F27.0
sg13
F0.1377551020408163
ssg40
(dp574
g11
F0.0008620689655172414
sg12
F2.0
sg13
F0.01020408163265306
ssssS'element14'
p575
(dp576
g3
I0
sg4
I200
sg5
I3536
sg6
I208
sg7
(dp577
g9
(dp578
g11
F0.058823529411764705
sg12
F208.0
sg13
F1.04
ssg14
(dp579
g11
F0.003110859728506787
sg12
F11.0
sg13
F0.055
ssg16
(dp580
g11
F0.029694570135746605
sg12
F105.0
sg13
F0.525
ssg32
(dp581
g11
F0.003110859728506787
sg12
F11.0
sg13
F0.055
ssg34
(dp582
g11
F0.004524886877828055
sg12
F16.0
sg13
F0.08
ssg18
(dp583
g11
F0.005656108597285068
sg12
F20.0
sg13
F0.1
ssg20
(dp584
g11
F0.0025452488687782806
sg12
F9.0
sg13
F0.045
ssg22
(dp585
g11
F0.0005656108597285068
sg12
F2.0
sg13
F0.01
ssg24
(dp586
g11
F0.009615384615384616
sg12
F34.0
sg13
F0.17
ssssS'sparkfun'
p587
(dp588
g3
I0
sg4
I194
sg5
I3657
sg6
I154
sg7
(dp589
g9
(dp590
g11
F0.042111019961717254
sg12
F154.0
sg13
F0.7938144329896907
ssg14
(dp591
g11
F0.0013672409078479629
sg12
F5.0
sg13
F0.02577319587628866
ssg16
(dp592
g11
F0.019414820891441073
sg12
F71.0
sg13
F0.36597938144329895
ssg32
(dp593
g11
F0.0008203445447087777
sg12
F3.0
sg13
F0.015463917525773196
ssg34
(dp594
g11
F0.0027344818156959257
sg12
F10.0
sg13
F0.05154639175257732
ssg18
(dp595
g11
F0.007109652720809406
sg12
F26.0
sg13
F0.13402061855670103
ssg20
(dp596
g11
F0.0008203445447087777
sg12
F3.0
sg13
F0.015463917525773196
ssg22
(dp597
g11
F0.0008203445447087777
sg12
F3.0
sg13
F0.015463917525773196
ssg24
(dp598
g11
F0.008750341810226962
sg12
F32.0
sg13
F0.16494845360824742
ssg40
(dp599
g11
F0.00027344818156959256
sg12
F1.0
sg13
F0.005154639175257732
ssssS'arduino'
p600
(dp601
g3
I0
sg4
I179
sg5
I2607
sg6
I201
sg7
(dp602
g9
(dp603
g11
F0.07710011507479862
sg12
F201.0
sg13
F1.1229050279329609
ssg14
(dp604
g11
F0.004986574606827772
sg12
F13.0
sg13
F0.07262569832402235
ssg16
(dp605
g11
F0.03375527426160337
sg12
F88.0
sg13
F0.49162011173184356
ssg32
(dp606
g11
F0.0003835826620636747
sg12
F1.0
sg13
F0.00558659217877095
ssg34
(dp607
g11
F0.0003835826620636747
sg12
F1.0
sg13
F0.00558659217877095
ssg18
(dp608
g11
F0.017644802454929037
sg12
F46.0
sg13
F0.2569832402234637
ssg20
(dp609
g11
F0.0011507479861910242
sg12
F3.0
sg13
F0.01675977653631285
ssg22
(dp610
g11
F0.0003835826620636747
sg12
F1.0
sg13
F0.00558659217877095
ssg24
(dp611
g11
F0.018411967779056387
sg12
F48.0
sg13
F0.2681564245810056
ssssS'3d_printers'
p612
(dp613
g3
I0
sg4
I197
sg5
I3399
sg6
I168
sg7
(dp614
g9
(dp615
g11
F0.04942630185348632
sg12
F168.0
sg13
F0.8527918781725888
ssg14
(dp616
g11
F0.0014710208884966167
sg12
F5.0
sg13
F0.025380710659898477
ssg16
(dp617
g11
F0.025007355104442484
sg12
F85.0
sg13
F0.43147208121827413
ssg32
(dp618
g11
F0.0005884083553986466
sg12
F2.0
sg13
F0.01015228426395939
ssg34
(dp619
g11
F0.0029420417769932335
sg12
F10.0
sg13
F0.050761421319796954
ssg18
(dp620
g11
F0.005884083553986467
sg12
F20.0
sg13
F0.10152284263959391
ssg20
(dp621
g11
F0.0002942041776993233
sg12
F1.0
sg13
F0.005076142131979695
ssg22
(dp622
g11
F0.0023536334215945864
sg12
F8.0
sg13
F0.04060913705583756
ssg24
(dp623
g11
F0.01059135039717564
sg12
F36.0
sg13
F0.18274111675126903
ssg40
(dp624
g11
F0.0002942041776993233
sg12
F1.0
sg13
F0.005076142131979695
ssssS'makerbot'
p625
(dp626
g3
I0
sg4
I199
sg5
I3848
sg6
I535
sg7
(dp627
g9
(dp628
g11
F0.13903326403326402
sg12
F535.0
sg13
F2.6884422110552766
ssg14
(dp629
g11
F0.008056133056133057
sg12
F31.0
sg13
F0.15577889447236182
ssg16
(dp630
g11
F0.062370062370062374
sg12
F240.0
sg13
F1.2060301507537687
ssg34
(dp631
g11
F0.0005197505197505198
sg12
F2.0
sg13
F0.010050251256281407
ssg18
(dp632
g11
F0.033523908523908526
sg12
F129.0
sg13
F0.6482412060301508
ssg20
(dp633
g11
F0.0010395010395010396
sg12
F4.0
sg13
F0.020100502512562814
ssg24
(dp634
g11
F0.033523908523908526
sg12
F129.0
sg13
F0.6482412060301508
ssssS'CodeClub'
p635
(dp636
g3
I0
sg4
I197
sg5
I3702
sg6
I163
sg7
(dp637
g9
(dp638
g11
F0.04403025391680173
sg12
F163.0
sg13
F0.8274111675126904
ssg14
(dp639
g11
F0.005672609400324149
sg12
F21.0
sg13
F0.1065989847715736
ssg16
(dp640
g11
F0.022690437601296597
sg12
F84.0
sg13
F0.4263959390862944
ssg32
(dp641
g11
F0.0008103727714748784
sg12
F3.0
sg13
F0.015228426395939087
ssg34
(dp642
g11
F0.0032414910858995136
sg12
F12.0
sg13
F0.06091370558375635
ssg18
(dp643
g11
F0.0037817396002160996
sg12
F14.0
sg13
F0.07106598984771574
ssg20
(dp644
g11
F0.0005402485143165856
sg12
F2.0
sg13
F0.01015228426395939
ssg22
(dp645
g11
F0.0005402485143165856
sg12
F2.0
sg13
F0.01015228426395939
ssg24
(dp646
g11
F0.006212857914640735
sg12
F23.0
sg13
F0.116751269035533
ssg40
(dp647
g11
F0.0005402485143165856
sg12
F2.0
sg13
F0.01015228426395939
ssssS'MakerShed'
p648
(dp649
g3
I0
sg4
I198
sg5
I2858
sg6
I176
sg7
(dp650
g9
(dp651
g11
F0.0615815255423373
sg12
F176.0
sg13
F0.8888888888888888
ssg14
(dp652
g11
F0.00244926522043387
sg12
F7.0
sg13
F0.03535353535353535
ssg16
(dp653
g11
F0.02589223233030091
sg12
F74.0
sg13
F0.37373737373737376
ssg32
(dp654
g11
F0.0010496850944716584
sg12
F3.0
sg13
F0.015151515151515152
ssg34
(dp655
g11
F0.0031490552834149755
sg12
F9.0
sg13
F0.045454545454545456
ssg18
(dp656
g11
F0.013995801259622114
sg12
F40.0
sg13
F0.20202020202020202
ssg24
(dp657
g11
F0.015045486354093772
sg12
F43.0
sg13
F0.21717171717171718
ssss.