(dp0
cre
_compile
p1
(S'FOSS[.,;:]*'
p2
I2
tp3
Rp4
(dp5
S'categories'
p6
(lp7
S'0'
p8
aS'1'
p9
asS'key'
p10
S'FOSS'
p11
ssg1
(S'contribute[.,;:]*'
p12
I2
tp13
Rp14
(dp15
g6
(lp16
g8
aS'2'
p17
aS'3'
p18
asg10
S'contribute'
p19
ssg1
(S"learn[a-z']*[.,;:]*"
p20
I2
tp21
Rp22
(dp23
g6
(lp24
g8
asg10
S'learn*'
p25
ssg1
(S'technology[.,;:]*'
p26
I2
tp27
Rp28
(dp29
g6
(lp30
g8
aS'6'
p31
asg10
S'technology'
p32
ssg1
(S'consumption[.,;:]*'
p33
I2
tp34
Rp35
(dp36
g6
(lp37
S'7'
p38
asg10
S'consumption'
p39
ssg1
(S"making[a-z']*[.,;:]*"
p40
I2
tp41
Rp42
(dp43
g6
(lp44
g8
aS'5'
p45
ag31
asg10
S'making*'
p46
ssg1
(S"open[a-z']*[.,;:]*"
p47
I2
tp48
Rp49
(dp50
g6
(lp51
g8
ag9
asg10
S'open*'
p52
ssg1
(S'propriety [.,;:]*'
p53
I2
tp54
Rp55
(dp56
g6
(lp57
g38
asg10
S'propriety '
p58
ssg1
(S'reciprocity[.,;:]*'
p59
I2
tp60
Rp61
(dp62
g6
(lp63
g8
ag9
ag17
asg10
S'reciprocity'
p64
ssg1
(S"design[a-z']*[.,;:]*"
p65
I2
tp66
Rp67
(dp68
g6
(lp69
g8
asg10
S'design*'
p70
ssg1
(S"environment[a-z']*[.,;:]*"
p71
I2
tp72
Rp73
(dp74
g6
(lp75
g8
aS'4'
p76
asg10
S'environment*'
p77
ssg1
(S"shar[a-z']*[.,;:]*"
p78
I2
tp79
Rp80
(dp81
g6
(lp82
g8
ag17
asg10
S'shar*'
p83
ssg1
(S"creat[a-z']*[.,;:]*"
p84
I2
tp85
Rp86
(dp87
g6
(lp88
g8
ag45
ag31
asg10
S'creat*'
p89
ssg1
(S"climate[a-z']*[.,;:]*"
p90
I2
tp91
Rp92
(dp93
g6
(lp94
g8
ag76
asg10
S'climate*'
p95
ssg1
(S'commons[.,;:]*'
p96
I2
tp97
Rp98
(dp99
g6
(lp100
g8
ag17
ag18
asg10
S'commons'
p101
ssg1
(S"consumerism[a-z']*[.,;:]*"
p102
I2
tp103
Rp104
(dp105
g6
(lp106
g38
asg10
S'consumerism*'
p107
ssg1
(S"make[a-z']*[.,;:]*"
p108
I2
tp109
Rp110
(dp111
g6
(lp112
g8
ag45
ag31
asg10
S'make*'
p113
ssg1
(S"adopt[a-z']*[.,;:]*"
p114
I2
tp115
Rp116
(dp117
g6
(lp118
g8
ag45
asg10
S'adopt*'
p119
ssg1
(S'carbon-print[.,;:]*'
p120
I2
tp121
Rp122
(dp123
g6
(lp124
g76
ag38
asg10
S'carbon-print'
p125
ssg1
(S'empathy[.,;:]*'
p126
I2
tp127
Rp128
(dp129
g6
(lp130
g8
aS'8'
p131
asg10
S'empathy'
p132
ssg1
(S"idea[a-z']*[.,;:]*"
p133
I2
tp134
Rp135
(dp136
g6
(lp137
g8
ag31
asg10
S'idea*'
p138
ssg1
(S're-use[.,;:]*'
p139
I2
tp140
Rp141
(dp142
g6
(lp143
g8
ag76
asg10
S're-use'
p144
ssg1
(S'Open-source[.,;:]*'
p145
I2
tp146
Rp147
(dp148
g6
(lp149
g8
ag9
asg10
S'Open-source'
p150
ssg1
(S'process[.,;:]*'
p151
I2
tp152
Rp153
(dp154
g6
(lp155
g8
ag31
asg10
S'process'
p156
ssg1
(S'grassroots[.,;:]*'
p157
I2
tp158
Rp159
(dp160
g6
(lp161
g8
ag17
ag18
asg10
S'grassroots'
p162
ssg1
(S'profit[.,;:]*'
p163
I2
tp164
Rp165
(dp166
g6
(lp167
g38
asg10
S'profit'
p168
ssg1
(S"co-delivery[a-z']*[.,;:]*"
p169
I2
tp170
Rp171
(dp172
g6
(lp173
g8
ag18
ag76
asg10
S'co-delivery*'
p174
ssg1
(S"repair[a-z']*[.,;:]*"
p175
I2
tp176
Rp177
(dp178
g6
(lp179
g8
ag76
asg10
S'repair*'
p180
ssg1
(S'closed[.,;:]*'
p181
I2
tp182
Rp183
(dp184
g6
(lp185
g38
asg10
S'closed'
p186
ssg1
(S"solv[a-z']*[.,;:]*"
p187
I2
tp188
Rp189
(dp190
g6
(lp191
g8
asg10
S'solv*'
p192
ssg1
(S'reuse[.,;:]*'
p193
I2
tp194
Rp195
(dp196
g6
(lp197
g8
ag76
asg10
S'reuse'
p198
ssg1
(S'knowledge[.,;:]*'
p199
I2
tp200
Rp201
(dp202
g6
(lp203
g8
ag31
asg10
S'knowledge'
p204
ssg1
(S'carbon[.,;:]*'
p205
I2
tp206
Rp207
(dp208
g6
(lp209
g38
asg10
S'carbon'
p210
ssg1
(S'durability[.,;:]*'
p211
I2
tp212
Rp213
(dp214
g6
(lp215
g8
ag76
asg10
S'durability'
p216
ssg1
(S'F-OSS[.,;:]*'
p217
I2
tp218
Rp219
(dp220
g6
(lp221
g8
ag9
asg10
S'F-OSS'
p222
ssg1
(S'social[.,;:]*'
p223
I2
tp224
Rp225
(dp226
g6
(lp227
g8
ag9
ag17
ag18
asg10
S'social'
p228
ssg1
(S'changeable[.,;:]*'
p229
I2
tp230
Rp231
(dp232
g6
(lp233
g8
ag45
asg10
S'changeable'
p234
ssg1
(S'F/OSS[.,;:]*'
p235
I2
tp236
Rp237
(dp238
g6
(lp239
g8
ag9
asg10
S'F/OSS'
p240
ssg1
(S'planet[.,;:]*'
p241
I2
tp242
Rp243
(dp244
g6
(lp245
g8
ag76
asg10
S'planet'
p246
ssg1
(S"invent[a-z']*[.,;:]*"
p247
I2
tp248
Rp249
(dp250
g6
(lp251
g8
ag31
asg10
S'invent*'
p252
ssg1
(S'disposable[.,;:]*'
p253
I2
tp254
Rp255
(dp256
g6
(lp257
g8
ag76
asg10
S'disposable'
p258
ssg1
(S"mass[a-z']*[.,;:]*"
p259
I2
tp260
Rp261
(dp262
g6
(lp263
g8
ag38
asg10
S'mass*'
p264
ssg1
(S"participat[a-z']*[.,;:]*"
p265
I2
tp266
Rp267
(dp268
g6
(lp269
g8
ag18
asg10
S'participat*'
p270
ssg1
(S"tool[a-z']*[.,;:]*"
p271
I2
tp272
Rp273
(dp274
g6
(lp275
g8
ag45
ag31
asg10
S'tool*'
p276
ssg1
(S"custom[a-z']*[.,;:]*"
p277
I2
tp278
Rp279
(dp280
g6
(lp281
g8
ag45
asg10
S'custom*'
p282
ssg1
(S"functional[a-z']*[.,;:]*"
p283
I2
tp284
Rp285
(dp286
g6
(lp287
g8
ag31
asg10
S'functional*'
p288
ssg1
(S'co-funding[.,;:]*'
p289
I2
tp290
Rp291
(dp292
g6
(lp293
g8
ag9
ag17
ag18
asg10
S'co-funding'
p294
ssg1
(S'personal[.,;:]*'
p295
I2
tp296
Rp297
(dp298
g6
(lp299
g8
ag45
asg10
S'personal'
p300
ssg1
(S"opportunit[a-z']*[.,;:]*"
p301
I2
tp302
Rp303
(dp304
g6
(lp305
g8
ag131
asg10
S'opportunit*'
p306
ssg1
(S'solution[.,;:]*'
p307
I2
tp308
Rp309
(dp310
g6
(lp311
g8
asg10
S'solution'
p312
ssg1
(S'progress[.,;:]*'
p313
I2
tp314
Rp315
(dp316
g6
(lp317
g8
ag31
asg10
S'progress'
p318
ssg1
(S"innovation[a-z']*[.,;:]*"
p319
I2
tp320
Rp321
(dp322
g6
(lp323
g8
ag31
asg10
S'innovation*'
p324
ssg1
(S"free[a-z']*[.,;:]*"
p325
I2
tp326
Rp327
(dp328
g6
(lp329
g8
ag9
asg10
S'free*'
p330
ssg1
(S'industry[.,;:]*'
p331
I2
tp332
Rp333
(dp334
g6
(lp335
g38
asg10
S'industry'
p336
ssg1
(S"capital[a-z']*[.,;:]*"
p337
I2
tp338
Rp339
(dp340
g6
(lp341
g38
asg10
S'capital*'
p342
ssg1
(S"altruist[a-z']*[.,;:]*"
p343
I2
tp344
Rp345
(dp346
g6
(lp347
g8
ag17
ag18
asg10
S'altruist*'
p348
ssg1
(S'OSS[.,;:]*'
p349
I2
tp350
Rp351
(dp352
g6
(lp353
g8
ag9
asg10
S'OSS'
p354
ssg1
(S'editable[.,;:]*'
p355
I2
tp356
Rp357
(dp358
g6
(lp359
g8
ag9
ag45
asg10
S'editable'
p360
ssg1
(S'p2p[.,;:]*'
p361
I2
tp362
Rp363
(dp364
g6
(lp365
g8
ag9
ag17
ag18
asg10
S'p2p'
p366
ssg1
(S'do-it-yourself[.,;:]*'
p367
I2
tp368
Rp369
(dp370
g6
(lp371
g8
asg10
S'do-it-yourself'
p372
ssg1
(S'satisficing[.,;:]*'
p373
I2
tp374
Rp375
(dp376
g6
(lp377
g38
asg10
S'satisficing'
p378
ssg1
(S'fun[.,;:]*'
p379
I2
tp380
Rp381
(dp382
g6
(lp383
g8
asg10
S'fun'
p384
ssg1
(S"explor[a-z']*[.,;:]*"
p385
I2
tp386
Rp387
(dp388
g6
(lp389
g8
ag31
asg10
S'explor*'
p390
ssg1
(S"democra[a-z']*[.,;:]*"
p391
I2
tp392
Rp393
(dp394
g6
(lp395
g8
ag131
asg10
S'democra*'
p396
ssg1
(S"discover[a-z']*[.,;:]*"
p397
I2
tp398
Rp399
(dp400
g6
(lp401
g8
ag31
asg10
S'discover*'
p402
ssg1
(S'DIY[.,;:]*'
p403
I2
tp404
Rp405
(dp406
g6
(lp407
g8
asg10
S'DIY'
p408
ssg1
(S'peer-to-peer[.,;:]*'
p409
I2
tp410
Rp411
(dp412
g6
(lp413
g8
ag9
ag17
ag18
asg10
S'peer-to-peer'
p414
ssg1
(S"equalit[a-z']*[.,;:]*"
p415
I2
tp416
Rp417
(dp418
g6
(lp419
g8
ag18
asg10
S'equalit*'
p420
ssg1
(S"communit[a-z']*[.,;:]*"
p421
I2
tp422
Rp423
(dp424
g6
(lp425
g8
ag17
ag18
asg10
S'communit*'
p426
ssg1
(S"repurpose[a-z']*[.,;:]*"
p427
I2
tp428
Rp429
(dp430
g6
(lp431
g8
ag76
asg10
S'repurpose*'
p432
ssg1
(S"re-cycl[a-z']*[.,;:]*"
p433
I2
tp434
Rp435
(dp436
g6
(lp437
g8
ag76
asg10
S're-cycl*'
p438
ssg1
(S"choice[a-z']*[.,;:]*"
p439
I2
tp440
Rp441
(dp442
g6
(lp443
g8
ag31
ag131
asg10
S'choice*'
p444
ssg1
(S"wasting[a-z']*[.,;:]*"
p445
I2
tp446
Rp447
(dp448
g6
(lp449
g38
asg10
S'wasting*'
p450
ssg1
(S'personalization[.,;:]*'
p451
I2
tp452
Rp453
(dp454
g6
(lp455
g8
ag45
asg10
S'personalization'
p456
ssg1
(S'alternative[.,;:]*'
p457
I2
tp458
Rp459
(dp460
g6
(lp461
g8
ag31
asg10
S'alternative'
p462
ssg1
(S"multi-stakeholder[a-z']*[.,;:]*"
p463
I2
tp464
Rp465
(dp466
g6
(lp467
g8
ag131
asg10
S'multi-stakeholder*'
p468
ssg1
(S'transparency[.,;:]*'
p469
I2
tp470
Rp471
(dp472
g6
(lp473
g8
ag9
asg10
S'transparency'
p474
ssg1
(S"monopol[a-z']*[.,;:]*"
p475
I2
tp476
Rp477
(dp478
g6
(lp479
g38
asg10
S'monopol*'
p480
ssg1
(S"craftsman[a-z']*[.,;:]*"
p481
I2
tp482
Rp483
(dp484
g6
(lp485
g8
ag45
asg10
S'craftsman*'
p486
ssg1
(S"green[a-z']*[.,;:]*"
p487
I2
tp488
Rp489
(dp490
g6
(lp491
g8
ag76
asg10
S'green*'
p492
ssg1
(S'downloadable[.,;:]*'
p493
I2
tp494
Rp495
(dp496
g6
(lp497
g8
ag9
ag17
asg10
S'downloadable'
p498
ssg1
(S"empower[a-z']*[.,;:]*"
p499
I2
tp500
Rp501
(dp502
g6
(lp503
g8
asg10
S'empower*'
p504
ssg1
(S"co-validation[a-z']*[.,;:]*"
p505
I2
tp506
Rp507
(dp508
g6
(lp509
g8
ag31
asg10
S'co-validation*'
p510
ssg1
(S'cooperation[.,;:]*'
p511
I2
tp512
Rp513
(dp514
g6
(lp515
g8
ag18
asg10
S'cooperation'
p516
ssg1
(S"substitut[a-z']*[.,;:]*"
p517
I2
tp518
Rp519
(dp520
g6
(lp521
g8
ag45
ag31
asg10
S'substitut*'
p522
ssg1
(S"nature[a-z']*[.,;:]*"
p523
I2
tp524
Rp525
(dp526
g6
(lp527
g8
ag76
asg10
S'nature*'
p528
ssg1
(S'local[.,;:]*'
p529
I2
tp530
Rp531
(dp532
g6
(lp533
g8
ag76
asg10
S'local'
p534
ssg1
(S"alter[a-z']*[.,;:]*"
p535
I2
tp536
Rp537
(dp538
g6
(lp539
g8
ag45
ag31
asg10
S'alter*'
p540
ssg1
(S"free-software[a-z']*[.,;:]*"
p541
I2
tp542
Rp543
(dp544
g6
(lp545
g8
ag9
asg10
S'free-software*'
p546
ssg1
(S"patent[a-z']*[.,;:]*"
p547
I2
tp548
Rp549
(dp550
g6
(lp551
g38
asg10
S'patent*'
p552
ssg1
(S'user-driven[.,;:]*'
p553
I2
tp554
Rp555
(dp556
g6
(lp557
g8
ag76
ag45
asg10
S'user-driven'
p558
ssg1
(S"sustainab[a-z']*[.,;:]*"
p559
I2
tp560
Rp561
(dp562
g6
(lp563
g8
ag76
asg10
S'sustainab*'
p564
ssg1
(S"access[a-z']*[.,;:]*"
p565
I2
tp566
Rp567
(dp568
g6
(lp569
g8
ag9
asg10
S'access*'
p570
ssg1
(S"enjoy[a-z']*[.,;:]*"
p571
I2
tp572
Rp573
(dp574
g6
(lp575
g8
asg10
S'enjoy*'
p576
ssg1
(S"recycl[a-z']*[.,;:]*"
p577
I2
tp578
Rp579
(dp580
g6
(lp581
g8
ag76
asg10
S'recycl*'
p582
ssg1
(S"co-design[a-z']*[.,;:]*"
p583
I2
tp584
Rp585
(dp586
g6
(lp587
g8
ag9
ag17
ag18
ag31
asg10
S'co-design*'
p588
ssg1
(S"collective[a-z']*[.,;:]*"
p589
I2
tp590
Rp591
(dp592
g6
(lp593
g8
ag18
asg10
S'collective*'
p594
ss.